

Microchip MPLAB XC8 Assembler V2.41 build 20230208172133 
                                                                                               Sat Jul 22 23:04:25 2023

Microchip MPLAB XC8 C Compiler v2.41 (Free license) build 20230208172133 Og1 
     1                           	processor	18F4620
     2                           	fnconf	rparam,??,?,0
     3                           	pagewidth 120
     4                           	opt	flic
     5                           	psect	idataCOMRAM,global,class=CODE,delta=1,noexec
     6                           	psect	idataBANK0,global,class=CODE,delta=1,noexec
     7                           	psect	smallconst,global,reloc=2,class=SMALLCONST,delta=1,noexec
     8                           	psect	cinit,global,reloc=2,class=CODE,delta=1
     9                           	psect	bssCOMRAM,global,class=COMRAM,space=1,delta=1,lowdata,noexec
    10                           	psect	dataCOMRAM,global,class=COMRAM,space=1,delta=1,lowdata,noexec
    11                           	psect	bssBANK0,global,class=BANK0,space=1,delta=1,lowdata,noexec
    12                           	psect	dataBANK0,global,class=BANK0,space=1,delta=1,lowdata,noexec
    13                           	psect	cstackBANK0,global,class=BANK0,space=1,delta=1,lowdata,noexec
    14                           	psect	cstackCOMRAM,global,class=COMRAM,space=1,delta=1,lowdata,noexec
    15                           	psect	text0,global,reloc=2,class=CODE,delta=1
    16                           	psect	text1,global,reloc=2,class=CODE,delta=1
    17                           	psect	text2,global,reloc=2,class=CODE,delta=1
    18                           	psect	text3,global,reloc=2,class=CODE,delta=1
    19                           	psect	text4,global,reloc=2,class=CODE,delta=1
    20                           	psect	text5,global,reloc=2,class=CODE,delta=1
    21                           	psect	text6,global,reloc=2,class=CODE,delta=1
    22                           	psect	text7,global,reloc=2,class=CODE,delta=1
    23                           	psect	text8,global,reloc=2,class=CODE,delta=1
    24                           	psect	text9,global,reloc=2,class=CODE,delta=1
    25                           	psect	text10,global,reloc=2,class=CODE,delta=1
    26                           	psect	text11,global,reloc=2,class=CODE,delta=1
    27                           	psect	text12,global,reloc=2,class=CODE,delta=1
    28                           	psect	text13,global,reloc=2,class=CODE,delta=1
    29                           	psect	text14,global,reloc=2,class=CODE,delta=1
    30                           	psect	text15,global,reloc=2,class=CODE,delta=1
    31                           	psect	text16,global,reloc=2,class=CODE,delta=1,inline
    32                           	psect	intcode,global,reloc=2,class=CODE,delta=1
    33                           	psect	intcode_body,global,reloc=2,class=CODE,delta=1
    34                           	psect	text18,global,reloc=2,class=CODE,delta=1
    35                           	psect	text19,global,reloc=2,class=CODE,delta=1
    36                           	psect	text20,global,reloc=2,class=CODE,delta=1
    37                           	psect	text21,global,reloc=2,class=CODE,delta=1
    38                           	psect	text22,global,reloc=2,class=CODE,delta=1
    39                           	psect	text23,global,reloc=2,class=CODE,delta=1
    40                           	psect	text24,global,reloc=2,class=CODE,delta=1
    41                           	psect	text25,global,reloc=2,class=CODE,delta=1
    42                           	psect	text26,global,reloc=2,class=CODE,delta=1
    43                           	psect	text27,global,reloc=2,class=CODE,delta=1
    44                           	psect	text28,global,reloc=2,class=CODE,delta=1
    45                           	psect	text29,global,reloc=2,class=CODE,delta=1
    46                           	psect	text30,global,reloc=2,class=CODE,delta=1
    47                           	psect	text31,global,reloc=2,class=CODE,delta=1
    48                           	psect	text32,global,reloc=2,class=CODE,delta=1
    49                           	psect	text33,global,reloc=2,class=CODE,delta=1
    50                           	psect	text34,global,reloc=2,class=CODE,delta=1
    51                           	psect	text35,global,reloc=2,class=CODE,delta=1
    52                           	psect	text36,global,reloc=2,class=CODE,delta=1
    53                           	psect	text37,global,reloc=2,class=CODE,delta=1
    54                           	psect	text38,global,reloc=2,class=CODE,delta=1
    55                           	psect	intsave_regs,global,class=BIGRAM,space=1,delta=1,noexec
    56                           	psect	text39,global,reloc=2,class=CODE,delta=1
    57                           	psect	rparam,global,class=COMRAM,space=1,delta=1,noexec
    58                           	psect	temp,global,ovrld,common,class=COMRAM,space=1,delta=1
    59                           	psect	idloc,global,abs,ovrld,class=IDLOC,space=5,delta=1,noexec
    60                           	psect	config,global,abs,ovrld,class=CONFIG,space=4,delta=1,noexec
    61   000000                     
    62                           ; Generated 09/02/2023 GMT
    63                           ; 
    64                           ; Copyright © 2023, Microchip Technology Inc. and its subsidiaries ("Microchip")
    65                           ; All rights reserved.
    66                           ; 
    67                           ; This software is developed by Microchip Technology Inc. and its subsidiaries ("Microch
      +                          ip").
    68                           ; 
    69                           ; Redistribution and use in source and binary forms, with or without modification, are
    70                           ; permitted provided that the following conditions are met:
    71                           ; 
    72                           ;     1. Redistributions of source code must retain the above copyright notice, this lis
      +                          t of
    73                           ;        conditions and the following disclaimer.
    74                           ; 
    75                           ;     2. Redistributions in binary form must reproduce the above copyright notice, this 
      +                          list
    76                           ;        of conditions and the following disclaimer in the documentation and/or other
    77                           ;        materials provided with the distribution. Publication is not required when
    78                           ;        this file is used in an embedded application.
    79                           ; 
    80                           ;     3. Microchip's name may not be used to endorse or promote products derived from th
      +                          is
    81                           ;        software without specific prior written permission.
    82                           ; 
    83                           ; THIS SOFTWARE IS PROVIDED BY MICROCHIP "AS IS" AND ANY EXPRESS OR IMPLIED WARRANTIES,
    84                           ; INCLUDING, BUT NOT LIMITED TO, THE IMPLIED WARRANTIES OF MERCHANTABILITY AND FITNESS F
      +                          OR
    85                           ; PURPOSE ARE DISCLAIMED.  IN NO EVENT SHALL MICROCHIP BE LIABLE FOR ANY DIRECT, INDIREC
      +                          T,
    86                           ; INCIDENTAL, SPECIAL, EXEMPLARY, OR CONSEQUENTIAL DAMAGES (INCLUDING BUT NOT LIMITED TO
    87                           ; PROCUREMENT OF SUBSTITUTE GOODS OR SERVICES; LOSS OF USE, DATA OR PROFITS; OR BUSINESS
    88                           ; INTERRUPTION) HOWSOEVER CAUSED AND ON ANY THEORY OF LIABILITY, WHETHER IN CONTRACT, ST
      +                          RICT
    89                           ; LIABILITY, OR TORT (INCLUDING NEGLIGENCE OR OTHERWISE) ARISING IN ANY WAY OUT OF THE U
      +                          SE OF
    90                           ; THIS SOFTWARE, EVEN IF ADVISED OF THE POSSIBILITY OF SUCH DAMAGE.
    91                           ; 
    92                           ; 
    93                           ; Code-generator required, PIC18F4620 Definitions
    94                           ; 
    95                           ; SFR Addresses
    96   000000                     
    97                           	psect	idataCOMRAM
    98   002090                     __pidataCOMRAM:
    99                           	callstack 0
   100                           
   101                           ;initializer for _RB7_Flag
   102   002090  01                 	db	1
   103                           
   104                           ;initializer for _RB6_Flag
   105   002091  01                 	db	1
   106                           
   107                           ;initializer for _RB5_Flag
   108   002092  01                 	db	1
   109                           
   110                           ;initializer for _RB4_Flag
   111   002093  01                 	db	1
   112                           
   113                           ;initializer for _led1
   114   002094  02                 	db	2
   115                           
   116                           	psect	idataBANK0
   117   001F9A                     __pidataBANK0:
   118                           	callstack 0
   119                           
   120                           ;initializer for _port_registers
   121   001F9A  80                 	db	128
   122   001F9B  0F                 	db	15
   123   001F9C  81                 	db	129
   124   001F9D  0F                 	db	15
   125   001F9E  82                 	db	130
   126   001F9F  0F                 	db	15
   127   001FA0  83                 	db	131
   128   001FA1  0F                 	db	15
   129   001FA2  84                 	db	132
   130   001FA3  0F                 	db	15
   131                           
   132                           ;initializer for _lat_registers
   133   001FA4  89                 	db	137
   134   001FA5  0F                 	db	15
   135   001FA6  8A                 	db	138
   136   001FA7  0F                 	db	15
   137   001FA8  8B                 	db	139
   138   001FA9  0F                 	db	15
   139   001FAA  8C                 	db	140
   140   001FAB  0F                 	db	15
   141   001FAC  8D                 	db	141
   142   001FAD  0F                 	db	15
   143                           
   144                           ;initializer for _tris_registers
   145   001FAE  92                 	db	146
   146   001FAF  0F                 	db	15
   147   001FB0  93                 	db	147
   148   001FB1  0F                 	db	15
   149   001FB2  94                 	db	148
   150   001FB3  0F                 	db	15
   151   001FB4  95                 	db	149
   152   001FB5  0F                 	db	15
   153   001FB6  96                 	db	150
   154   001FB7  0F                 	db	15
   155                           
   156                           ;initializer for _lcd_2
   157   001FB8  32                 	db	50
   158   001FB9  3A                 	db	58
   159   001FBA  03                 	db	3
   160   001FBB  0B                 	db	11
   161   001FBC  13                 	db	19
   162   001FBD  1B                 	db	27
   163   001FBE  23                 	db	35
   164   001FBF  2B                 	db	43
   165   001FC0  33                 	db	51
   166   001FC1  3B                 	db	59
   167                           
   168                           ;initializer for _lcd_1
   169   001FC2  02                 	db	2
   170   001FC3  0A                 	db	10
   171   001FC4  12                 	db	18
   172   001FC5  1A                 	db	26
   173   001FC6  22                 	db	34
   174   001FC7  2A                 	db	42
   175                           
   176                           	psect	smallconst
   177   001000                     __psmallconst:
   178                           	callstack 0
   179   001000  00                 	db	0
   180   001001                     _btn_values:
   181                           	callstack 0
   182   001001  37                 	db	55
   183   001002  38                 	db	56
   184   001003  39                 	db	57
   185   001004  2F                 	db	47
   186   001005  34                 	db	52
   187   001006  35                 	db	53
   188   001007  36                 	db	54
   189   001008  2A                 	db	42
   190   001009  31                 	db	49
   191   00100A  32                 	db	50
   192   00100B  33                 	db	51
   193   00100C  2D                 	db	45
   194   00100D  23                 	db	35
   195   00100E  30                 	db	48
   196   00100F  3D                 	db	61
   197   001010  2B                 	db	43
   198   001011                     __end_of_btn_values:
   199                           	callstack 0
   200   000000                     _SPBRGH	set	4016
   201   000000                     _SPBRG	set	4015
   202   000000                     _TXREG	set	4013
   203   000000                     _TXSTAbits	set	4012
   204   000000                     _RCREG	set	4014
   205   000000                     _RCSTAbits	set	4011
   206   000000                     _TMR3L	set	4018
   207   000000                     _TMR3H	set	4019
   208   000000                     _TMR1L	set	4046
   209   000000                     _TMR1H	set	4047
   210   000000                     _TMR0L	set	4054
   211   000000                     _TMR0H	set	4055
   212   000000                     _INTCON2bits	set	4081
   213   000000                     _SSPSTATbits	set	4039
   214   000000                     _SSPADD	set	4040
   215   000000                     _SSPCON2bits	set	4037
   216   000000                     _SSPCON1bits	set	4038
   217   000000                     _EECON2	set	4007
   218   000000                     _CCPR2H	set	4028
   219   000000                     _CCPR2L	set	4027
   220   000000                     _CCPR1H	set	4031
   221   000000                     _CCPR1L	set	4030
   222   000000                     _ADCON1bits	set	4033
   223   000000                     _ADRESL	set	4035
   224   000000                     _ADRESH	set	4036
   225   000000                     _INTCONbits	set	4082
   226   000000                     _TRISD	set	3989
   227   000000                     _TRISC	set	3988
   228   000000                     _TRISB	set	3987
   229   000000                     _TRISE	set	3990
   230   000000                     _PORTBbits	set	3969
   231   000000                     _TRISCbits	set	3988
   232   000000                     _PIE1bits	set	3997
   233   000000                     _ADCON2bits	set	4032
   234   000000                     _ADCON0bits	set	4034
   235   000000                     _PORTE	set	3972
   236   000000                     _PORTD	set	3971
   237   000000                     _PORTC	set	3970
   238   000000                     _PORTB	set	3969
   239   000000                     _PORTA	set	3968
   240   000000                     _LATA	set	3977
   241   000000                     _TRISA	set	3986
   242   000000                     _PIE2bits	set	4000
   243   000000                     _CCP2CONbits	set	4026
   244   000000                     _CCP1CONbits	set	4029
   245   000000                     _PIR1bits	set	3998
   246   000000                     _EECON1bits	set	4006
   247   000000                     _EEDATA	set	4008
   248   000000                     _EEADR	set	4009
   249   000000                     _EEADRH	set	4010
   250   000000                     _T3CONbits	set	4017
   251   000000                     _PIR2bits	set	4001
   252   000000                     _LATE	set	3981
   253   000000                     _LATD	set	3980
   254   000000                     _LATC	set	3979
   255   000000                     _LATB	set	3978
   256   000000                     _TMR2	set	4044
   257   000000                     _T2CONbits	set	4042
   258   000000                     _T1CONbits	set	4045
   259   000000                     _T0CONbits	set	4053
   260   000000                     _INTCON3bits	set	4080
   261   000000                     _SSPBUF	set	4041
   262   000000                     _BAUDCONbits	set	4024
   263   001011                     STR_1:
   264   001011  25                 	db	37
   265   001012  69                 	db	105	;'i'
   266   001013  00                 	db	0
   267   001014  00                 	db	0	; dummy byte at the end
   268   000000                     
   269                           ; #config settings
   270                           
   271                           	psect	cinit
   272   001E3E                     __pcinit:
   273                           	callstack 0
   274   001E3E                     start_initialization:
   275                           	callstack 0
   276   001E3E                     __initialization:
   277                           	callstack 0
   278                           
   279                           ; Initialize objects allocated to BANK0 (46 bytes)
   280                           ; load TBLPTR registers with __pidataBANK0
   281   001E3E  0E9A               	movlw	low __pidataBANK0
   282   001E40  6EF6               	movwf	tblptrl,c
   283   001E42  0E1F               	movlw	high __pidataBANK0
   284   001E44  6EF7               	movwf	tblptrh,c
   285   001E46  0E00               	movlw	low (__pidataBANK0 shr (0+16))
   286   001E48  6EF8               	movwf	tblptru,c
   287   001E4A  EE00  F080         	lfsr	0,__pdataBANK0
   288   001E4E  EE10 F02E          	lfsr	1,46
   289   001E52                     copy_data0:
   290   001E52  0009               	tblrd		*+
   291   001E54  CFF5 FFEE          	movff	tablat,postinc0
   292   001E58  50E5               	movf	postdec1,w,c
   293   001E5A  50E1               	movf	fsr1l,w,c
   294   001E5C  E1FA               	bnz	copy_data0
   295                           
   296                           ; Initialize objects allocated to COMRAM (5 bytes)
   297                           ; load TBLPTR registers with __pidataCOMRAM
   298   001E5E  0E90               	movlw	low __pidataCOMRAM
   299   001E60  6EF6               	movwf	tblptrl,c
   300   001E62  0E20               	movlw	high __pidataCOMRAM
   301   001E64  6EF7               	movwf	tblptrh,c
   302   001E66  0E00               	movlw	low (__pidataCOMRAM shr (0+16))
   303   001E68  6EF8               	movwf	tblptru,c
   304   001E6A  EE00  F069         	lfsr	0,__pdataCOMRAM
   305   001E6E  EE10 F005          	lfsr	1,5
   306   001E72                     copy_data1:
   307   001E72  0009               	tblrd		*+
   308   001E74  CFF5 FFEE          	movff	tablat,postinc0
   309   001E78  50E5               	movf	postdec1,w,c
   310   001E7A  50E1               	movf	fsr1l,w,c
   311   001E7C  E1FA               	bnz	copy_data1
   312                           
   313                           ; Clear objects allocated to BANK0 (10 bytes)
   314   001E7E  EE00  F0BD         	lfsr	0,__pbssBANK0
   315   001E82  0E0A               	movlw	10
   316   001E84                     clear_0:
   317   001E84  6AEE               	clrf	postinc0,c
   318   001E86  06E8               	decf	wreg,f,c
   319   001E88  E1FD               	bnz	clear_0
   320                           
   321                           ; Clear objects allocated to COMRAM (74 bytes)
   322   001E8A  EE00  F001         	lfsr	0,__pbssCOMRAM
   323   001E8E  0E4A               	movlw	74
   324   001E90                     clear_1:
   325   001E90  6AEE               	clrf	postinc0,c
   326   001E92  06E8               	decf	wreg,f,c
   327   001E94  E1FD               	bnz	clear_1
   328   001E96                     end_of_initialization:
   329                           	callstack 0
   330   001E96                     __end_of__initialization:
   331                           	callstack 0
   332   001E96  906E               	bcf	int$flags,0,c	;clear compiler interrupt flag (level 1)
   333   001E98  926E               	bcf	int$flags,1,c	;clear compiler interrupt flag (level 2)
   334   001E9A  0100               	movlb	0
   335   001E9C  EF50  F00F         	goto	_main	;jump to C main() function
   336                           
   337                           	psect	bssCOMRAM
   338   000001                     __pbssCOMRAM:
   339                           	callstack 0
   340   000001                     _USART_OverrunErrorHandler:
   341                           	callstack 0
   342   000001                     	ds	2
   343   000003                     _USART_FramingErrorHandler:
   344                           	callstack 0
   345   000003                     	ds	2
   346   000005                     _USART_RxDefaultInterruptHandler:
   347                           	callstack 0
   348   000005                     	ds	2
   349   000007                     _USART_TxDefaultInterruptHandler:
   350                           	callstack 0
   351   000007                     	ds	2
   352   000009                     _TMR3_InterruptHandler:
   353                           	callstack 0
   354   000009                     	ds	2
   355   00000B                     _timer3_preload:
   356                           	callstack 0
   357   00000B                     	ds	2
   358   00000D                     _TMR2_InterruptHandler:
   359                           	callstack 0
   360   00000D                     	ds	2
   361   00000F                     _TMR1_InterruptHandler:
   362                           	callstack 0
   363   00000F                     	ds	2
   364   000011                     _timer1_preload:
   365                           	callstack 0
   366   000011                     	ds	2
   367   000013                     _TMR0_InterruptHandler:
   368                           	callstack 0
   369   000013                     	ds	2
   370   000015                     _timer0_preload:
   371                           	callstack 0
   372   000015                     	ds	2
   373   000017                     _RB7_InterruptHandler_LOW:
   374                           	callstack 0
   375   000017                     	ds	2
   376   000019                     _RB7_InterruptHandler_HIGH:
   377                           	callstack 0
   378   000019                     	ds	2
   379   00001B                     _RB6_InterruptHandler_LOW:
   380                           	callstack 0
   381   00001B                     	ds	2
   382   00001D                     _RB6_InterruptHandler_HIGH:
   383                           	callstack 0
   384   00001D                     	ds	2
   385   00001F                     _RB5_InterruptHandler_LOW:
   386                           	callstack 0
   387   00001F                     	ds	2
   388   000021                     _RB5_InterruptHandler_HIGH:
   389                           	callstack 0
   390   000021                     	ds	2
   391   000023                     _RB4_InterruptHandler_LOW:
   392                           	callstack 0
   393   000023                     	ds	2
   394   000025                     _RB4_InterruptHandler_HIGH:
   395                           	callstack 0
   396   000025                     	ds	2
   397   000027                     _INT2_InterruptHandler:
   398                           	callstack 0
   399   000027                     	ds	2
   400   000029                     _INT1_InterruptHandler:
   401                           	callstack 0
   402   000029                     	ds	2
   403   00002B                     _INT0_InterruptHandler:
   404                           	callstack 0
   405   00002B                     	ds	2
   406   00002D                     _MSSP_I2C_Report_Receive_Overflow_InterruptHandler:
   407                           	callstack 0
   408   00002D                     	ds	2
   409   00002F                     _MSSP_I2C_Report_Write_Collision_InterruptHandler:
   410                           	callstack 0
   411   00002F                     	ds	2
   412   000031                     _MSSP_I2C_DefaultInterruptHandler:
   413                           	callstack 0
   414   000031                     	ds	2
   415   000033                     CCP_Set_Compare_Mode_Value@F3106:
   416                           	callstack 0
   417   000033                     	ds	2
   418   000035                     _CCP2_InterruptHandler:
   419                           	callstack 0
   420   000035                     	ds	2
   421   000037                     _CCP1_InterruptHandler:
   422                           	callstack 0
   423   000037                     	ds	2
   424   000039                     _ADC_InterruptHandler:
   425                           	callstack 0
   426   000039                     	ds	2
   427   00003B                     _timer2_preload:
   428                           	callstack 0
   429   00003B                     	ds	1
   430   00003C                     relay_turn_off@F3052:
   431                           	callstack 0
   432   00003C                     	ds	1
   433   00003D                     relay_turn_on@F3047:
   434                           	callstack 0
   435   00003D                     	ds	1
   436   00003E                     relay_initialize@F3042:
   437                           	callstack 0
   438   00003E                     	ds	1
   439   00003F                     led_turn_toggle@F3063:
   440                           	callstack 0
   441   00003F                     	ds	1
   442   000040                     led_turn_off@F3058:
   443                           	callstack 0
   444   000040                     	ds	1
   445   000041                     led_turn_on@F3053:
   446                           	callstack 0
   447   000041                     	ds	1
   448   000042                     led_initialize@F3048:
   449                           	callstack 0
   450   000042                     	ds	1
   451   000043                     _counter_obj:
   452                           	callstack 0
   453   000043                     	ds	6
   454   000049                     _timer1_counter_val:
   455                           	callstack 0
   456   000049                     	ds	2
   457                           
   458                           	psect	dataCOMRAM
   459   000069                     __pdataCOMRAM:
   460                           	callstack 0
   461   000069                     _RB7_Flag:
   462                           	callstack 0
   463   000069                     	ds	1
   464   00006A                     _RB6_Flag:
   465                           	callstack 0
   466   00006A                     	ds	1
   467   00006B                     _RB5_Flag:
   468                           	callstack 0
   469   00006B                     	ds	1
   470   00006C                     _RB4_Flag:
   471                           	callstack 0
   472   00006C                     	ds	1
   473   00006D                     _led1:
   474                           	callstack 0
   475   00006D                     	ds	1
   476                           
   477                           	psect	bssBANK0
   478   0000BD                     __pbssBANK0:
   479                           	callstack 0
   480   0000BD                     	ds	6
   481   0000C3                     _timer1_on:
   482                           	callstack 0
   483   0000C3                     	ds	4
   484                           
   485                           	psect	dataBANK0
   486   000080                     __pdataBANK0:
   487                           	callstack 0
   488   000080                     _port_registers:
   489                           	callstack 0
   490   000080                     	ds	10
   491   00008A                     _lat_registers:
   492                           	callstack 0
   493   00008A                     	ds	10
   494   000094                     _tris_registers:
   495                           	callstack 0
   496   000094                     	ds	10
   497   00009E                     _lcd_2:
   498                           	callstack 0
   499   00009E                     	ds	10
   500   0000A8                     _lcd_1:
   501                           	callstack 0
   502   0000A8                     	ds	6
   503                           
   504                           	psect	cstackBANK0
   505   0000AE                     __pcstackBANK0:
   506                           	callstack 0
   507   0000AE                     lcd_send_4bits@ret:
   508                           	callstack 0
   509   0000AE                     gpio_pin_intialize@ret:
   510                           	callstack 0
   511   0000AE                     lcd_8bit_send_command@lcd:
   512                           	callstack 0
   513                           
   514                           ; 2 bytes @ 0x0
   515   0000AE                     	ds	1
   516   0000AF                     lcd_4bit_send_command@lcd:
   517                           	callstack 0
   518   0000AF                     led_initialize@led:
   519                           	callstack 0
   520                           
   521                           ; 2 bytes @ 0x1
   522   0000AF                     	ds	1
   523   0000B0                     lcd_8bit_send_command@command:
   524                           	callstack 0
   525                           
   526                           ; 1 bytes @ 0x2
   527   0000B0                     	ds	1
   528   0000B1                     ??_lcd_8bit_send_command:
   529   0000B1                     ??_led_initialize:
   530   0000B1                     lcd_4bit_send_command@command:
   531                           	callstack 0
   532                           
   533                           ; 1 bytes @ 0x3
   534   0000B1                     	ds	1
   535   0000B2                     lcd_4bit_send_command@ret:
   536                           	callstack 0
   537   0000B2                     led_initialize@ret:
   538                           	callstack 0
   539                           
   540                           ; 1 bytes @ 0x4
   541   0000B2                     	ds	1
   542   0000B3                     led_initialize@pin_obj:
   543                           	callstack 0
   544   0000B3                     lcd_4bit_intialize@lcd:
   545                           	callstack 0
   546                           
   547                           ; 2 bytes @ 0x5
   548   0000B3                     	ds	2
   549   0000B5                     ??_lcd_4bit_intialize:
   550   0000B5                     lcd_8bit_send_command@ret:
   551                           	callstack 0
   552                           
   553                           ; 1 bytes @ 0x7
   554   0000B5                     	ds	1
   555   0000B6                     lcd_8bit_send_command@l_pin_counter:
   556                           	callstack 0
   557                           
   558                           ; 1 bytes @ 0x8
   559   0000B6                     	ds	1
   560   0000B7                     lcd_4bit_intialize@l_data_pins_counter:
   561                           	callstack 0
   562   0000B7                     lcd_8bit_intialize@lcd:
   563                           	callstack 0
   564                           
   565                           ; 2 bytes @ 0x9
   566   0000B7                     	ds	1
   567   0000B8                     lcd_4bit_intialize@ret:
   568                           	callstack 0
   569                           
   570                           ; 1 bytes @ 0xA
   571   0000B8                     	ds	1
   572   0000B9                     ??_lcd_8bit_intialize:
   573                           
   574                           ; 1 bytes @ 0xB
   575   0000B9                     	ds	2
   576   0000BB                     lcd_8bit_intialize@l_data_pins_counter:
   577                           	callstack 0
   578                           
   579                           ; 1 bytes @ 0xD
   580   0000BB                     	ds	1
   581   0000BC                     lcd_8bit_intialize@ret:
   582                           	callstack 0
   583                           
   584                           ; 1 bytes @ 0xE
   585   0000BC                     	ds	1
   586                           
   587                           	psect	cstackCOMRAM
   588   00004B                     __pcstackCOMRAM:
   589                           	callstack 0
   590   00004B                     RB4_ISR@RB4_Source:
   591                           	callstack 0
   592   00004B                     RB5_ISR@RB5_Source:
   593                           	callstack 0
   594   00004B                     RB6_ISR@RB6_Source:
   595                           	callstack 0
   596   00004B                     RB7_ISR@RB7_Source:
   597                           	callstack 0
   598   00004B                     gpio_pin_toggle_logic@_pin_config:
   599                           	callstack 0
   600                           
   601                           ; 2 bytes @ 0x0
   602   00004B                     	ds	2
   603   00004D                     ??_gpio_pin_toggle_logic:
   604                           
   605                           ; 1 bytes @ 0x2
   606   00004D                     	ds	5
   607   000052                     led_turn_toggle@led:
   608                           	callstack 0
   609                           
   610                           ; 2 bytes @ 0x7
   611   000052                     	ds	2
   612   000054                     ??_led_turn_toggle:
   613                           
   614                           ; 1 bytes @ 0x9
   615   000054                     	ds	1
   616   000055                     led_turn_toggle@pin_obj:
   617                           	callstack 0
   618                           
   619                           ; 1 bytes @ 0xA
   620   000055                     	ds	1
   621   000056                     ??_InterruptManager:
   622   000056                     
   623                           ; 1 bytes @ 0xB
   624   000056                     	ds	6
   625   00005C                     gpio_pin_direction_intialize@_pin_config:
   626                           	callstack 0
   627   00005C                     gpio_pin_write_logic@_pin_config:
   628                           	callstack 0
   629   00005C                     Timer1_Read_Value@_timer:
   630                           	callstack 0
   631   00005C                     Timer1_Mode_Selection@_timer:
   632                           	callstack 0
   633                           
   634                           ; 2 bytes @ 0x11
   635   00005C                     	ds	2
   636   00005E                     ??_gpio_pin_direction_intialize:
   637   00005E                     gpio_pin_write_logic@logic:
   638                           	callstack 0
   639   00005E                     Timer1_Init@_timer:
   640                           	callstack 0
   641   00005E                     Timer1_Read_Value@_value:
   642                           	callstack 0
   643                           
   644                           ; 2 bytes @ 0x13
   645   00005E                     	ds	1
   646   00005F                     ??_gpio_pin_write_logic:
   647                           
   648                           ; 1 bytes @ 0x14
   649   00005F                     	ds	1
   650   000060                     ??_Timer1_Init:
   651   000060                     ??_Timer1_Read_Value:
   652                           
   653                           ; 1 bytes @ 0x15
   654   000060                     	ds	2
   655   000062                     Timer1_Init@ret:
   656                           	callstack 0
   657   000062                     Timer1_Read_Value@l_tmr1l:
   658                           	callstack 0
   659                           
   660                           ; 1 bytes @ 0x17
   661   000062                     	ds	1
   662   000063                     Timer1_Read_Value@l_tmr1h:
   663                           	callstack 0
   664                           
   665                           ; 1 bytes @ 0x18
   666   000063                     	ds	1
   667   000064                     gpio_pin_direction_intialize@ret:
   668                           	callstack 0
   669   000064                     Timer1_Read_Value@ret:
   670                           	callstack 0
   671                           
   672                           ; 1 bytes @ 0x19
   673   000064                     	ds	1
   674   000065                     gpio_pin_write_logic@ret:
   675                           	callstack 0
   676                           
   677                           ; 1 bytes @ 0x1A
   678   000065                     	ds	1
   679   000066                     lcd_send_4bits@lcd:
   680                           	callstack 0
   681   000066                     lcd_4bit_send_enable_signal@lcd:
   682                           	callstack 0
   683   000066                     lcd_8bit_send_enable_signal@lcd:
   684                           	callstack 0
   685   000066                     gpio_pin_intialize@_pin_config:
   686                           	callstack 0
   687                           
   688                           ; 2 bytes @ 0x1B
   689   000066                     	ds	2
   690   000068                     ??_gpio_pin_intialize:
   691   000068                     lcd_send_4bits@_data_command:
   692                           	callstack 0
   693   000068                     lcd_4bit_send_enable_signal@ret:
   694                           	callstack 0
   695   000068                     lcd_8bit_send_enable_signal@ret:
   696                           	callstack 0
   697                           
   698                           ; 1 bytes @ 0x1D
   699   000068                     	ds	1
   700   000069                     
   701                           ; 1 bytes @ 0x1E
   702 ;;
   703 ;;Main: autosize = 0, tempsize = 0, incstack = 0, save=0
   704 ;;
   705 ;; *************** function _main *****************
   706 ;; Defined at:
   707 ;;		line 42 in file "application.c"
   708 ;; Parameters:    Size  Location     Type
   709 ;;		None
   710 ;; Auto vars:     Size  Location     Type
   711 ;;  ret             1    0        unsigned char 
   712 ;; Return value:  Size  Location     Type
   713 ;;                  2  1583[None  ] int 
   714 ;; Registers used:
   715 ;;		wreg, fsr2l, fsr2h, status,2, status,0, prodl, prodh, cstack
   716 ;; Tracked objects:
   717 ;;		On entry : 0/0
   718 ;;		On exit  : 0/0
   719 ;;		Unchanged: 0/0
   720 ;; Data sizes:     COMRAM   BANK0   BANK1   BANK2   BANK3   BANK4   BANK5   BANK6   BANK7   BANK8   BANK9  BANK10  BANK1
      +1  BANK12  BANK13  BANK14  BANK15
   721 ;;      Params:         0       0       0       0       0       0       0       0       0       0       0       0       
      +0       0       0       0       0
   722 ;;      Locals:         0       0       0       0       0       0       0       0       0       0       0       0       
      +0       0       0       0       0
   723 ;;      Temps:          0       0       0       0       0       0       0       0       0       0       0       0       
      +0       0       0       0       0
   724 ;;      Totals:         0       0       0       0       0       0       0       0       0       0       0       0       
      +0       0       0       0       0
   725 ;;Total ram usage:        0 bytes
   726 ;; Hardware stack levels required when called: 11
   727 ;; This function calls:
   728 ;;		_Timer1_Init
   729 ;;		_Timer1_Read_Value
   730 ;;		_application_intialize
   731 ;;		_led_initialize
   732 ;; This function is called by:
   733 ;;		Startup code after reset
   734 ;; This function uses a non-reentrant model
   735 ;;
   736                           
   737                           	psect	text0
   738   001EA0                     __ptext0:
   739                           	callstack 0
   740   001EA0                     _main:
   741                           	callstack 20
   742   001EA0                     
   743                           ;application.c: 45:     application_intialize();;application.c: 45:     application_inti
      +                          alize();
   744   001EA0  EC45  F010         	call	_application_intialize	;wreg free
   745   001EA4                     
   746                           ;application.c: 47:     counter_obj.TMR1_InterruptHandler = ((void*)0);;application.c: 4
      +                          7:     counter_obj.TMR1_InterruptHandler = ((void*)0);
   747   001EA4  0E00               	movlw	0
   748   001EA6  6E43               	movwf	_counter_obj^0,c
   749   001EA8  0E00               	movlw	0
   750   001EAA  6E44               	movwf	(_counter_obj+1)^0,c
   751   001EAC                     
   752                           ;application.c: 48:     counter_obj.priority = INTERRUPT_LOW_PRIORITY;;application.c: 48
      +                          :     counter_obj.priority = INTERRUPT_LOW_PRIORITY;
   753   001EAC  0E00               	movlw	0
   754   001EAE  6E45               	movwf	(_counter_obj+2)^0,c
   755   001EB0                     
   756                           ;application.c: 49:     counter_obj.timer1_mode = 1;;application.c: 49:     counter_obj.
      +                          timer1_mode = 1;
   757   001EB0  8448               	bsf	(_counter_obj+5)^0,2,c
   758   001EB2                     
   759                           ;application.c: 50:     counter_obj.timer1_prescaler_value = 0;;application.c: 50:     c
      +                          ounter_obj.timer1_prescaler_value = 0;
   760   001EB2  0EFC               	movlw	-4
   761   001EB4  1648               	andwf	(_counter_obj+5)^0,f,c
   762   001EB6                     
   763                           ;application.c: 51:     counter_obj.timer1_preload_value = 0;;application.c: 51:     cou
      +                          nter_obj.timer1_preload_value = 0;
   764   001EB6  0E00               	movlw	0
   765   001EB8  6E47               	movwf	(_counter_obj+4)^0,c
   766   001EBA  0E00               	movlw	0
   767   001EBC  6E46               	movwf	(_counter_obj+3)^0,c
   768   001EBE                     
   769                           ;application.c: 52:     counter_obj.timer1_reg_rw_mode = 1;;application.c: 52:     count
      +                          er_obj.timer1_reg_rw_mode = 1;
   770   001EBE  8A48               	bsf	(_counter_obj+5)^0,5,c
   771   001EC0                     
   772                           ;application.c: 53:     counter_obj.timer1_counter_mode = 0;;application.c: 53:     coun
      +                          ter_obj.timer1_counter_mode = 0;
   773   001EC0  9648               	bcf	(_counter_obj+5)^0,3,c
   774   001EC2  0E43               	movlw	low _counter_obj
   775   001EC4  6E5E               	movwf	Timer1_Init@_timer^0,c
   776   001EC6  0E00               	movlw	high _counter_obj
   777   001EC8  6E5F               	movwf	(Timer1_Init@_timer+1)^0,c
   778   001ECA  EC9A  F00C         	call	_Timer1_Init	;wreg free
   779   001ECE  0E6D               	movlw	low _led1
   780   001ED0  0100               	movlb	0	; () banked
   781   001ED2  6FAF               	movwf	led_initialize@led& (0+255),b
   782   001ED4  0E00               	movlw	high _led1
   783   001ED6  6FB0               	movwf	(led_initialize@led+1)& (0+255),b
   784   001ED8  EC85  F00D         	call	_led_initialize	;wreg free
   785   001EDC                     l6975:
   786   001EDC  0E43               	movlw	low _counter_obj
   787   001EDE  6E5C               	movwf	Timer1_Read_Value@_timer^0,c
   788   001EE0  0E00               	movlw	high _counter_obj
   789   001EE2  6E5D               	movwf	(Timer1_Read_Value@_timer+1)^0,c
   790   001EE4  0E49               	movlw	low _timer1_counter_val
   791   001EE6  6E5E               	movwf	Timer1_Read_Value@_value^0,c
   792   001EE8  0E00               	movlw	high _timer1_counter_val
   793   001EEA  6E5F               	movwf	(Timer1_Read_Value@_value+1)^0,c
   794   001EEC  ECEB  F00E         	call	_Timer1_Read_Value	;wreg free
   795   001EF0  EF6E  F00F         	goto	l6975
   796   001EF4  EF07  F000         	goto	start
   797   001EF8                     __end_of_main:
   798                           	callstack 0
   799                           
   800 ;; *************** function _led_initialize *****************
   801 ;; Defined at:
   802 ;;		line 21 in file "ECU_Layer/LED/ecu_led.c"
   803 ;; Parameters:    Size  Location     Type
   804 ;;  led             2    1[BANK0 ] PTR const struct .
   805 ;;		 -> led1(1), 
   806 ;; Auto vars:     Size  Location     Type
   807 ;;  pin_obj         1    5[BANK0 ] struct .
   808 ;;  ret             1    4[BANK0 ] unsigned char 
   809 ;; Return value:  Size  Location     Type
   810 ;;                  1    wreg      unsigned char 
   811 ;; Registers used:
   812 ;;		wreg, fsr2l, fsr2h, status,2, status,0, prodl, prodh, cstack
   813 ;; Tracked objects:
   814 ;;		On entry : 0/0
   815 ;;		On exit  : 0/0
   816 ;;		Unchanged: 0/0
   817 ;; Data sizes:     COMRAM   BANK0   BANK1   BANK2   BANK3   BANK4   BANK5   BANK6   BANK7   BANK8   BANK9  BANK10  BANK1
      +1  BANK12  BANK13  BANK14  BANK15
   818 ;;      Params:         0       2       0       0       0       0       0       0       0       0       0       0       
      +0       0       0       0       0
   819 ;;      Locals:         0       2       0       0       0       0       0       0       0       0       0       0       
      +0       0       0       0       0
   820 ;;      Temps:          0       1       0       0       0       0       0       0       0       0       0       0       
      +0       0       0       0       0
   821 ;;      Totals:         0       5       0       0       0       0       0       0       0       0       0       0       
      +0       0       0       0       0
   822 ;;Total ram usage:        5 bytes
   823 ;; Hardware stack levels used: 1
   824 ;; Hardware stack levels required when called: 7
   825 ;; This function calls:
   826 ;;		_gpio_pin_intialize
   827 ;; This function is called by:
   828 ;;		_main
   829 ;; This function uses a non-reentrant model
   830 ;;
   831                           
   832                           	psect	text1
   833   001B0A                     __ptext1:
   834                           	callstack 0
   835   001B0A                     _led_initialize:
   836                           	callstack 23
   837   001B0A                     
   838                           ;ECU_Layer/LED/ecu_led.c: 21: Std_ReturnType led_initialize(const led_t *led);ECU_Layer/
      +                          LED/ecu_led.c: 22: {;ECU_Layer/LED/ecu_led.c: 23:     Std_ReturnType ret = (Std_ReturnTy
      +                          pe)0x01;
   839   001B0A  0E01               	movlw	1
   840   001B0C  0100               	movlb	0	; () banked
   841   001B0E  6FB2               	movwf	led_initialize@ret& (0+255),b
   842   001B10                     
   843                           ; BSR set to: 0
   844                           ;ECU_Layer/LED/ecu_led.c: 24:     if(((void*)0) == led)
   845   001B10  51AF               	movf	led_initialize@led& (0+255),w,b
   846   001B12  11B0               	iorwf	(led_initialize@led+1)& (0+255),w,b
   847   001B14  A4D8               	btfss	status,2,c
   848   001B16  EF8F  F00D         	goto	u5131
   849   001B1A  EF91  F00D         	goto	u5130
   850   001B1E                     u5131:
   851   001B1E  EF95  F00D         	goto	l270
   852   001B22                     u5130:
   853   001B22                     
   854                           ; BSR set to: 0
   855                           ;ECU_Layer/LED/ecu_led.c: 25:     {;ECU_Layer/LED/ecu_led.c: 26:         ret = (Std_Retu
      +                          rnType)0x00;
   856   001B22  0E00               	movlw	0
   857   001B24  6FB2               	movwf	led_initialize@ret& (0+255),b
   858                           
   859                           ;ECU_Layer/LED/ecu_led.c: 27:     }
   860   001B26  EFC3  F00D         	goto	l6489
   861   001B2A                     l270:
   862                           
   863                           ; BSR set to: 0
   864                           ;ECU_Layer/LED/ecu_led.c: 29:     {;ECU_Layer/LED/ecu_led.c: 30:         pin_config_t pi
      +                          n_obj = { .port = led->port_name, .pin = led->pin, .direction = GPIO_DIRECTION_OUTPUT,.l
      +                          ogic = led->led_status };
   865   001B2A  C042  F0B3         	movff	led_initialize@F3048,led_initialize@pin_obj
   866   001B2E                     
   867                           ; BSR set to: 0
   868   001B2E  C0AF  FFD9         	movff	led_initialize@led,fsr2l
   869   001B32  C0B0  FFDA         	movff	led_initialize@led+1,fsr2h
   870   001B36  50DF               	movf	223,w,c
   871   001B38  0B0F               	andlw	15
   872   001B3A  6FB1               	movwf	??_led_initialize& (0+255),b
   873   001B3C  51B3               	movf	led_initialize@pin_obj& (0+255),w,b
   874   001B3E  19B1               	xorwf	??_led_initialize& (0+255),w,b
   875   001B40  0BF8               	andlw	-8
   876   001B42  19B1               	xorwf	??_led_initialize& (0+255),w,b
   877   001B44  6FB3               	movwf	led_initialize@pin_obj& (0+255),b
   878   001B46  C0AF  FFD9         	movff	led_initialize@led,fsr2l
   879   001B4A  C0B0  FFDA         	movff	led_initialize@led+1,fsr2h
   880   001B4E  38DF               	swapf	223,w,c
   881   001B50  0B07               	andlw	7
   882   001B52  6FB1               	movwf	??_led_initialize& (0+255),b
   883   001B54  47B1               	rlncf	??_led_initialize& (0+255),f,b
   884   001B56  47B1               	rlncf	??_led_initialize& (0+255),f,b
   885   001B58  47B1               	rlncf	??_led_initialize& (0+255),f,b
   886   001B5A  51B3               	movf	led_initialize@pin_obj& (0+255),w,b
   887   001B5C  19B1               	xorwf	??_led_initialize& (0+255),w,b
   888   001B5E  0BC7               	andlw	-57
   889   001B60  19B1               	xorwf	??_led_initialize& (0+255),w,b
   890   001B62  6FB3               	movwf	led_initialize@pin_obj& (0+255),b
   891   001B64                     
   892                           ; BSR set to: 0
   893   001B64  9DB3               	bcf	led_initialize@pin_obj& (0+255),6,b
   894   001B66                     
   895                           ; BSR set to: 0
   896   001B66  C0AF  FFD9         	movff	led_initialize@led,fsr2l
   897   001B6A  C0B0  FFDA         	movff	led_initialize@led+1,fsr2h
   898   001B6E  AEDF               	btfss	indf2,7,c
   899   001B70  D002               	bra	u5145
   900   001B72  8FB3               	bsf	led_initialize@pin_obj& (0+255),7,b
   901   001B74  D002               	bra	u5147
   902   001B76                     u5145:
   903   001B76  0100               	movlb	0	; () banked
   904   001B78  9FB3               	bcf	led_initialize@pin_obj& (0+255),7,b
   905   001B7A                     u5147:
   906   001B7A                     
   907                           ; BSR set to: 0
   908                           ;ECU_Layer/LED/ecu_led.c: 31:         gpio_pin_intialize(&pin_obj);
   909   001B7A  0EB3               	movlw	low led_initialize@pin_obj
   910   001B7C  6E66               	movwf	gpio_pin_intialize@_pin_config^0,c
   911   001B7E  0E00               	movlw	high led_initialize@pin_obj
   912   001B80  6E67               	movwf	(gpio_pin_intialize@_pin_config+1)^0,c
   913   001B82  EC44  F00E         	call	_gpio_pin_intialize	;wreg free
   914   001B86                     l6489:
   915                           
   916                           ;ECU_Layer/LED/ecu_led.c: 33:     return ret;
   917   001B86  0100               	movlb	0	; () banked
   918   001B88  51B2               	movf	led_initialize@ret& (0+255),w,b
   919   001B8A                     
   920                           ; BSR set to: 0
   921   001B8A  0012               	return		;funcret
   922   001B8C                     __end_of_led_initialize:
   923                           	callstack 0
   924                           
   925 ;; *************** function _application_intialize *****************
   926 ;; Defined at:
   927 ;;		line 65 in file "application.c"
   928 ;; Parameters:    Size  Location     Type
   929 ;;		None
   930 ;; Auto vars:     Size  Location     Type
   931 ;;  ret             1    0        unsigned char 
   932 ;; Return value:  Size  Location     Type
   933 ;;                  1    wreg      void 
   934 ;; Registers used:
   935 ;;		wreg, fsr2l, fsr2h, status,2, status,0, prodl, prodh, cstack
   936 ;; Tracked objects:
   937 ;;		On entry : 0/0
   938 ;;		On exit  : 0/0
   939 ;;		Unchanged: 0/0
   940 ;; Data sizes:     COMRAM   BANK0   BANK1   BANK2   BANK3   BANK4   BANK5   BANK6   BANK7   BANK8   BANK9  BANK10  BANK1
      +1  BANK12  BANK13  BANK14  BANK15
   941 ;;      Params:         0       0       0       0       0       0       0       0       0       0       0       0       
      +0       0       0       0       0
   942 ;;      Locals:         0       0       0       0       0       0       0       0       0       0       0       0       
      +0       0       0       0       0
   943 ;;      Temps:          0       0       0       0       0       0       0       0       0       0       0       0       
      +0       0       0       0       0
   944 ;;      Totals:         0       0       0       0       0       0       0       0       0       0       0       0       
      +0       0       0       0       0
   945 ;;Total ram usage:        0 bytes
   946 ;; Hardware stack levels used: 1
   947 ;; Hardware stack levels required when called: 10
   948 ;; This function calls:
   949 ;;		_ecu_layer_intialize
   950 ;; This function is called by:
   951 ;;		_main
   952 ;; This function uses a non-reentrant model
   953 ;;
   954                           
   955                           	psect	text2
   956   00208A                     __ptext2:
   957                           	callstack 0
   958   00208A                     _application_intialize:
   959                           	callstack 20
   960   00208A                     
   961                           ;application.c: 68:     ecu_layer_intialize();;application.c: 68:     ecu_layer_intializ
      +                          e();
   962   00208A  ECE4  F00F         	call	_ecu_layer_intialize	;wreg free
   963   00208E  0012               	return		;funcret
   964   002090                     __end_of_application_intialize:
   965                           	callstack 0
   966                           
   967 ;; *************** function _ecu_layer_intialize *****************
   968 ;; Defined at:
   969 ;;		line 96 in file "ECU_Layer/ecu_layer_init.c"
   970 ;; Parameters:    Size  Location     Type
   971 ;;		None
   972 ;; Auto vars:     Size  Location     Type
   973 ;;  ret             1    0        unsigned char 
   974 ;; Return value:  Size  Location     Type
   975 ;;                  1    wreg      void 
   976 ;; Registers used:
   977 ;;		wreg, fsr2l, fsr2h, status,2, status,0, prodl, prodh, cstack
   978 ;; Tracked objects:
   979 ;;		On entry : 0/0
   980 ;;		On exit  : 0/0
   981 ;;		Unchanged: 0/0
   982 ;; Data sizes:     COMRAM   BANK0   BANK1   BANK2   BANK3   BANK4   BANK5   BANK6   BANK7   BANK8   BANK9  BANK10  BANK1
      +1  BANK12  BANK13  BANK14  BANK15
   983 ;;      Params:         0       0       0       0       0       0       0       0       0       0       0       0       
      +0       0       0       0       0
   984 ;;      Locals:         0       0       0       0       0       0       0       0       0       0       0       0       
      +0       0       0       0       0
   985 ;;      Temps:          0       0       0       0       0       0       0       0       0       0       0       0       
      +0       0       0       0       0
   986 ;;      Totals:         0       0       0       0       0       0       0       0       0       0       0       0       
      +0       0       0       0       0
   987 ;;Total ram usage:        0 bytes
   988 ;; Hardware stack levels used: 1
   989 ;; Hardware stack levels required when called: 9
   990 ;; This function calls:
   991 ;;		_lcd_4bit_intialize
   992 ;;		_lcd_8bit_intialize
   993 ;; This function is called by:
   994 ;;		_application_intialize
   995 ;; This function uses a non-reentrant model
   996 ;;
   997                           
   998                           	psect	text3
   999   001FC8                     __ptext3:
  1000                           	callstack 0
  1001   001FC8                     _ecu_layer_intialize:
  1002                           	callstack 20
  1003   001FC8  0EA8               	movlw	low _lcd_1
  1004   001FCA  0100               	movlb	0	; () banked
  1005   001FCC  6FB3               	movwf	lcd_4bit_intialize@lcd& (0+255),b
  1006   001FCE  0E00               	movlw	high _lcd_1
  1007   001FD0  6FB4               	movwf	(lcd_4bit_intialize@lcd+1)& (0+255),b
  1008   001FD2  ECBC  F00A         	call	_lcd_4bit_intialize	;wreg free
  1009   001FD6  0E9E               	movlw	low _lcd_2
  1010   001FD8  0100               	movlb	0	; () banked
  1011   001FDA  6FB7               	movwf	lcd_8bit_intialize@lcd& (0+255),b
  1012   001FDC  0E00               	movlw	high _lcd_2
  1013   001FDE  6FB8               	movwf	(lcd_8bit_intialize@lcd+1)& (0+255),b
  1014   001FE0  EC16  F00A         	call	_lcd_8bit_intialize	;wreg free
  1015   001FE4  0012               	return		;funcret
  1016   001FE6                     __end_of_ecu_layer_intialize:
  1017                           	callstack 0
  1018                           
  1019 ;; *************** function _lcd_8bit_intialize *****************
  1020 ;; Defined at:
  1021 ;;		line 275 in file "ECU_Layer/Chr_LCD/ecu_chr_lcd.c"
  1022 ;; Parameters:    Size  Location     Type
  1023 ;;  lcd             2    9[BANK0 ] PTR const struct .
  1024 ;;		 -> lcd_2(10), 
  1025 ;; Auto vars:     Size  Location     Type
  1026 ;;  ret             1   14[BANK0 ] unsigned char 
  1027 ;;  l_data_pins_    1   13[BANK0 ] unsigned char 
  1028 ;; Return value:  Size  Location     Type
  1029 ;;                  1    wreg      unsigned char 
  1030 ;; Registers used:
  1031 ;;		wreg, fsr2l, fsr2h, status,2, status,0, prodl, prodh, cstack
  1032 ;; Tracked objects:
  1033 ;;		On entry : 0/0
  1034 ;;		On exit  : 0/0
  1035 ;;		Unchanged: 0/0
  1036 ;; Data sizes:     COMRAM   BANK0   BANK1   BANK2   BANK3   BANK4   BANK5   BANK6   BANK7   BANK8   BANK9  BANK10  BANK1
      +1  BANK12  BANK13  BANK14  BANK15
  1037 ;;      Params:         0       2       0       0       0       0       0       0       0       0       0       0       
      +0       0       0       0       0
  1038 ;;      Locals:         0       2       0       0       0       0       0       0       0       0       0       0       
      +0       0       0       0       0
  1039 ;;      Temps:          0       2       0       0       0       0       0       0       0       0       0       0       
      +0       0       0       0       0
  1040 ;;      Totals:         0       6       0       0       0       0       0       0       0       0       0       0       
      +0       0       0       0       0
  1041 ;;Total ram usage:        6 bytes
  1042 ;; Hardware stack levels used: 1
  1043 ;; Hardware stack levels required when called: 8
  1044 ;; This function calls:
  1045 ;;		_gpio_pin_intialize
  1046 ;;		_lcd_8bit_send_command
  1047 ;; This function is called by:
  1048 ;;		_ecu_layer_intialize
  1049 ;; This function uses a non-reentrant model
  1050 ;;
  1051                           
  1052                           	psect	text4
  1053   00142C                     __ptext4:
  1054                           	callstack 0
  1055   00142C                     _lcd_8bit_intialize:
  1056                           	callstack 20
  1057   00142C                     
  1058                           ;ECU_Layer/Chr_LCD/ecu_chr_lcd.c: 278:     uint8 l_data_pins_counter = 0;
  1059   00142C  0E00               	movlw	0
  1060   00142E  0100               	movlb	0	; () banked
  1061   001430  6FBB               	movwf	lcd_8bit_intialize@l_data_pins_counter& (0+255),b
  1062   001432                     
  1063                           ; BSR set to: 0
  1064                           ;ECU_Layer/Chr_LCD/ecu_chr_lcd.c: 279:     if(((void*)0) == lcd)
  1065   001432  51B7               	movf	lcd_8bit_intialize@lcd& (0+255),w,b
  1066   001434  11B8               	iorwf	(lcd_8bit_intialize@lcd+1)& (0+255),w,b
  1067   001436  A4D8               	btfss	status,2,c
  1068   001438  EF20  F00A         	goto	u5031
  1069   00143C  EF22  F00A         	goto	u5030
  1070   001440                     u5031:
  1071   001440  EF26  F00A         	goto	l6351
  1072   001444                     u5030:
  1073   001444                     
  1074                           ; BSR set to: 0
  1075                           ;ECU_Layer/Chr_LCD/ecu_chr_lcd.c: 280:     {;ECU_Layer/Chr_LCD/ecu_chr_lcd.c: 281:      
      +                             ret = (Std_ReturnType)0x00;
  1076   001444  0E00               	movlw	0
  1077   001446  6FBC               	movwf	lcd_8bit_intialize@ret& (0+255),b
  1078                           
  1079                           ;ECU_Layer/Chr_LCD/ecu_chr_lcd.c: 282:     }
  1080   001448  EFBA  F00A         	goto	l6387
  1081   00144C                     l6351:
  1082                           
  1083                           ; BSR set to: 0
  1084                           ;ECU_Layer/Chr_LCD/ecu_chr_lcd.c: 284:     {;ECU_Layer/Chr_LCD/ecu_chr_lcd.c: 285:      
      +                             ret = gpio_pin_intialize(&(lcd->lcd_rs));
  1085   00144C  C0B7  F066         	movff	lcd_8bit_intialize@lcd,gpio_pin_intialize@_pin_config
  1086   001450  C0B8  F067         	movff	lcd_8bit_intialize@lcd+1,gpio_pin_intialize@_pin_config+1
  1087   001454  EC44  F00E         	call	_gpio_pin_intialize	;wreg free
  1088   001458  0100               	movlb	0	; () banked
  1089   00145A  6FBC               	movwf	lcd_8bit_intialize@ret& (0+255),b
  1090                           
  1091                           ;ECU_Layer/Chr_LCD/ecu_chr_lcd.c: 286:         ret = gpio_pin_intialize(&(lcd->lcd_en));
  1092   00145C  0E01               	movlw	1
  1093   00145E  25B7               	addwf	lcd_8bit_intialize@lcd& (0+255),w,b
  1094   001460  6E66               	movwf	gpio_pin_intialize@_pin_config^0,c
  1095   001462  0E00               	movlw	0
  1096   001464  21B8               	addwfc	(lcd_8bit_intialize@lcd+1)& (0+255),w,b
  1097   001466  6E67               	movwf	(gpio_pin_intialize@_pin_config+1)^0,c
  1098   001468  EC44  F00E         	call	_gpio_pin_intialize	;wreg free
  1099   00146C  0100               	movlb	0	; () banked
  1100   00146E  6FBC               	movwf	lcd_8bit_intialize@ret& (0+255),b
  1101   001470                     
  1102                           ; BSR set to: 0
  1103                           ;ECU_Layer/Chr_LCD/ecu_chr_lcd.c: 287:         for(l_data_pins_counter = 0; l_data_pins_
      +                          counter < 8; l_data_pins_counter++)
  1104   001470  0E00               	movlw	0
  1105   001472  6FBB               	movwf	lcd_8bit_intialize@l_data_pins_counter& (0+255),b
  1106   001474                     l6359:
  1107                           
  1108                           ; BSR set to: 0
  1109   001474  51BB               	movf	lcd_8bit_intialize@l_data_pins_counter& (0+255),w,b
  1110   001476  25B7               	addwf	lcd_8bit_intialize@lcd& (0+255),w,b
  1111   001478  6FB9               	movwf	??_lcd_8bit_intialize& (0+255),b
  1112   00147A  0E00               	movlw	0
  1113   00147C  21B8               	addwfc	(lcd_8bit_intialize@lcd+1)& (0+255),w,b
  1114   00147E  6FBA               	movwf	(??_lcd_8bit_intialize+1)& (0+255),b
  1115   001480  0E02               	movlw	2
  1116   001482  25B9               	addwf	??_lcd_8bit_intialize& (0+255),w,b
  1117   001484  6E66               	movwf	gpio_pin_intialize@_pin_config^0,c
  1118   001486  0E00               	movlw	0
  1119   001488  21BA               	addwfc	(??_lcd_8bit_intialize+1)& (0+255),w,b
  1120   00148A  6E67               	movwf	(gpio_pin_intialize@_pin_config+1)^0,c
  1121   00148C  EC44  F00E         	call	_gpio_pin_intialize	;wreg free
  1122   001490                     
  1123                           ;ECU_Layer/Chr_LCD/ecu_chr_lcd.c: 290:         }
  1124   001490  0100               	movlb	0	; () banked
  1125   001492  2BBB               	incf	lcd_8bit_intialize@l_data_pins_counter& (0+255),f,b
  1126   001494                     
  1127                           ; BSR set to: 0
  1128   001494  0E07               	movlw	7
  1129   001496  65BB               	cpfsgt	lcd_8bit_intialize@l_data_pins_counter& (0+255),b
  1130   001498  EF50  F00A         	goto	u5041
  1131   00149C  EF52  F00A         	goto	u5040
  1132   0014A0                     u5041:
  1133   0014A0  EF3A  F00A         	goto	l6359
  1134   0014A4                     u5040:
  1135   0014A4                     
  1136                           ; BSR set to: 0
  1137                           ;ECU_Layer/Chr_LCD/ecu_chr_lcd.c: 291:         _delay((unsigned long)((20)*(8000000UL/40
      +                          00.0)));
  1138   0014A4  0E34               	movlw	52
  1139   0014A6  0100               	movlb	0	; () banked
  1140   0014A8  6FB9               	movwf	??_lcd_8bit_intialize& (0+255),b
  1141   0014AA  0EF1               	movlw	241
  1142   0014AC                     u5597:
  1143   0014AC  2EE8               	decfsz	wreg,f,c
  1144   0014AE  D7FE               	bra	u5597
  1145   0014B0  2FB9               	decfsz	??_lcd_8bit_intialize& (0+255),f,b
  1146   0014B2  D7FC               	bra	u5597
  1147   0014B4  D000               	nop2	
  1148   0014B6  C0B7  F0AE         	movff	lcd_8bit_intialize@lcd,lcd_8bit_send_command@lcd
  1149   0014BA  C0B8  F0AF         	movff	lcd_8bit_intialize@lcd+1,lcd_8bit_send_command@lcd+1
  1150   0014BE  0E38               	movlw	56
  1151   0014C0  0100               	movlb	0	; () banked
  1152   0014C2  6FB0               	movwf	lcd_8bit_send_command@command& (0+255),b
  1153   0014C4  ECEF  F00C         	call	_lcd_8bit_send_command	;wreg free
  1154   0014C8                     
  1155                           ;ECU_Layer/Chr_LCD/ecu_chr_lcd.c: 293:         _delay((unsigned long)((5)*(8000000UL/400
      +                          0.0)));
  1156   0014C8  0E0D               	movlw	13
  1157   0014CA  0100               	movlb	0	; () banked
  1158   0014CC  6FB9               	movwf	??_lcd_8bit_intialize& (0+255),b
  1159   0014CE  0EFB               	movlw	251
  1160   0014D0                     u5607:
  1161   0014D0  2EE8               	decfsz	wreg,f,c
  1162   0014D2  D7FE               	bra	u5607
  1163   0014D4  2FB9               	decfsz	??_lcd_8bit_intialize& (0+255),f,b
  1164   0014D6  D7FC               	bra	u5607
  1165   0014D8  D000               	nop2	
  1166   0014DA  C0B7  F0AE         	movff	lcd_8bit_intialize@lcd,lcd_8bit_send_command@lcd
  1167   0014DE  C0B8  F0AF         	movff	lcd_8bit_intialize@lcd+1,lcd_8bit_send_command@lcd+1
  1168   0014E2  0E38               	movlw	56
  1169   0014E4  0100               	movlb	0	; () banked
  1170   0014E6  6FB0               	movwf	lcd_8bit_send_command@command& (0+255),b
  1171   0014E8  ECEF  F00C         	call	_lcd_8bit_send_command	;wreg free
  1172   0014EC                     
  1173                           ;ECU_Layer/Chr_LCD/ecu_chr_lcd.c: 295:         _delay((unsigned long)((150)*(8000000UL/4
      +                          000000.0)));
  1174   0014EC  0E64               	movlw	100
  1175   0014EE                     u5617:
  1176   0014EE  2EE8               	decfsz	wreg,f,c
  1177   0014F0  D7FE               	bra	u5617
  1178   0014F2  C0B7  F0AE         	movff	lcd_8bit_intialize@lcd,lcd_8bit_send_command@lcd
  1179   0014F6  C0B8  F0AF         	movff	lcd_8bit_intialize@lcd+1,lcd_8bit_send_command@lcd+1
  1180   0014FA  0E38               	movlw	56
  1181   0014FC  0100               	movlb	0	; () banked
  1182   0014FE  6FB0               	movwf	lcd_8bit_send_command@command& (0+255),b
  1183   001500  ECEF  F00C         	call	_lcd_8bit_send_command	;wreg free
  1184   001504  C0B7  F0AE         	movff	lcd_8bit_intialize@lcd,lcd_8bit_send_command@lcd
  1185   001508  C0B8  F0AF         	movff	lcd_8bit_intialize@lcd+1,lcd_8bit_send_command@lcd+1
  1186   00150C  0E01               	movlw	1
  1187   00150E  0100               	movlb	0	; () banked
  1188   001510  6FB0               	movwf	lcd_8bit_send_command@command& (0+255),b
  1189   001512  ECEF  F00C         	call	_lcd_8bit_send_command	;wreg free
  1190   001516  C0B7  F0AE         	movff	lcd_8bit_intialize@lcd,lcd_8bit_send_command@lcd
  1191   00151A  C0B8  F0AF         	movff	lcd_8bit_intialize@lcd+1,lcd_8bit_send_command@lcd+1
  1192   00151E  0E02               	movlw	2
  1193   001520  0100               	movlb	0	; () banked
  1194   001522  6FB0               	movwf	lcd_8bit_send_command@command& (0+255),b
  1195   001524  ECEF  F00C         	call	_lcd_8bit_send_command	;wreg free
  1196   001528  C0B7  F0AE         	movff	lcd_8bit_intialize@lcd,lcd_8bit_send_command@lcd
  1197   00152C  C0B8  F0AF         	movff	lcd_8bit_intialize@lcd+1,lcd_8bit_send_command@lcd+1
  1198   001530  0E06               	movlw	6
  1199   001532  0100               	movlb	0	; () banked
  1200   001534  6FB0               	movwf	lcd_8bit_send_command@command& (0+255),b
  1201   001536  ECEF  F00C         	call	_lcd_8bit_send_command	;wreg free
  1202   00153A  C0B7  F0AE         	movff	lcd_8bit_intialize@lcd,lcd_8bit_send_command@lcd
  1203   00153E  C0B8  F0AF         	movff	lcd_8bit_intialize@lcd+1,lcd_8bit_send_command@lcd+1
  1204   001542  0E0C               	movlw	12
  1205   001544  0100               	movlb	0	; () banked
  1206   001546  6FB0               	movwf	lcd_8bit_send_command@command& (0+255),b
  1207   001548  ECEF  F00C         	call	_lcd_8bit_send_command	;wreg free
  1208   00154C  C0B7  F0AE         	movff	lcd_8bit_intialize@lcd,lcd_8bit_send_command@lcd
  1209   001550  C0B8  F0AF         	movff	lcd_8bit_intialize@lcd+1,lcd_8bit_send_command@lcd+1
  1210   001554  0E38               	movlw	56
  1211   001556  0100               	movlb	0	; () banked
  1212   001558  6FB0               	movwf	lcd_8bit_send_command@command& (0+255),b
  1213   00155A  ECEF  F00C         	call	_lcd_8bit_send_command	;wreg free
  1214   00155E                     
  1215                           ;ECU_Layer/Chr_LCD/ecu_chr_lcd.c: 303:         ret = lcd_8bit_send_command(lcd, 0x80);
  1216   00155E  C0B7  F0AE         	movff	lcd_8bit_intialize@lcd,lcd_8bit_send_command@lcd
  1217   001562  C0B8  F0AF         	movff	lcd_8bit_intialize@lcd+1,lcd_8bit_send_command@lcd+1
  1218   001566  0E80               	movlw	128
  1219   001568  0100               	movlb	0	; () banked
  1220   00156A  6FB0               	movwf	lcd_8bit_send_command@command& (0+255),b
  1221   00156C  ECEF  F00C         	call	_lcd_8bit_send_command	;wreg free
  1222   001570  0100               	movlb	0	; () banked
  1223   001572  6FBC               	movwf	lcd_8bit_intialize@ret& (0+255),b
  1224   001574                     l6387:
  1225                           
  1226                           ; BSR set to: 0
  1227                           ;ECU_Layer/Chr_LCD/ecu_chr_lcd.c: 305:     return ret;
  1228   001574  51BC               	movf	lcd_8bit_intialize@ret& (0+255),w,b
  1229   001576                     
  1230                           ; BSR set to: 0
  1231   001576  0012               	return		;funcret
  1232   001578                     __end_of_lcd_8bit_intialize:
  1233                           	callstack 0
  1234                           
  1235 ;; *************** function _lcd_8bit_send_command *****************
  1236 ;; Defined at:
  1237 ;;		line 316 in file "ECU_Layer/Chr_LCD/ecu_chr_lcd.c"
  1238 ;; Parameters:    Size  Location     Type
  1239 ;;  lcd             2    0[BANK0 ] PTR const struct .
  1240 ;;		 -> lcd_2(10), 
  1241 ;;  command         1    2[BANK0 ] unsigned char 
  1242 ;; Auto vars:     Size  Location     Type
  1243 ;;  l_pin_counte    1    8[BANK0 ] unsigned char 
  1244 ;;  ret             1    7[BANK0 ] unsigned char 
  1245 ;; Return value:  Size  Location     Type
  1246 ;;                  1    wreg      unsigned char 
  1247 ;; Registers used:
  1248 ;;		wreg, fsr2l, fsr2h, status,2, status,0, prodl, prodh, cstack
  1249 ;; Tracked objects:
  1250 ;;		On entry : 0/0
  1251 ;;		On exit  : 0/0
  1252 ;;		Unchanged: 0/0
  1253 ;; Data sizes:     COMRAM   BANK0   BANK1   BANK2   BANK3   BANK4   BANK5   BANK6   BANK7   BANK8   BANK9  BANK10  BANK1
      +1  BANK12  BANK13  BANK14  BANK15
  1254 ;;      Params:         0       3       0       0       0       0       0       0       0       0       0       0       
      +0       0       0       0       0
  1255 ;;      Locals:         0       2       0       0       0       0       0       0       0       0       0       0       
      +0       0       0       0       0
  1256 ;;      Temps:          0       4       0       0       0       0       0       0       0       0       0       0       
      +0       0       0       0       0
  1257 ;;      Totals:         0       9       0       0       0       0       0       0       0       0       0       0       
      +0       0       0       0       0
  1258 ;;Total ram usage:        9 bytes
  1259 ;; Hardware stack levels used: 1
  1260 ;; Hardware stack levels required when called: 7
  1261 ;; This function calls:
  1262 ;;		_gpio_pin_write_logic
  1263 ;;		_lcd_8bit_send_enable_signal
  1264 ;; This function is called by:
  1265 ;;		_lcd_8bit_intialize
  1266 ;;		_lcd_8bit_send_custom_char
  1267 ;;		_lcd_8bit_set_cursor
  1268 ;; This function uses a non-reentrant model
  1269 ;;
  1270                           
  1271                           	psect	text5
  1272   0019DE                     __ptext5:
  1273                           	callstack 0
  1274   0019DE                     _lcd_8bit_send_command:
  1275                           	callstack 20
  1276   0019DE                     
  1277                           ;ECU_Layer/Chr_LCD/ecu_chr_lcd.c: 319:     uint8 l_pin_counter = 0;
  1278   0019DE  0E00               	movlw	0
  1279   0019E0  0100               	movlb	0	; () banked
  1280   0019E2  6FB6               	movwf	lcd_8bit_send_command@l_pin_counter& (0+255),b
  1281   0019E4                     
  1282                           ; BSR set to: 0
  1283                           ;ECU_Layer/Chr_LCD/ecu_chr_lcd.c: 320:     if(((void*)0) == lcd)
  1284   0019E4  51AE               	movf	lcd_8bit_send_command@lcd& (0+255),w,b
  1285   0019E6  11AF               	iorwf	(lcd_8bit_send_command@lcd+1)& (0+255),w,b
  1286   0019E8  A4D8               	btfss	status,2,c
  1287   0019EA  EFF9  F00C         	goto	u4981
  1288   0019EE  EFFB  F00C         	goto	u4980
  1289   0019F2                     u4981:
  1290   0019F2  EFFF  F00C         	goto	l6279
  1291   0019F6                     u4980:
  1292   0019F6                     
  1293                           ; BSR set to: 0
  1294                           ;ECU_Layer/Chr_LCD/ecu_chr_lcd.c: 321:     {;ECU_Layer/Chr_LCD/ecu_chr_lcd.c: 322:      
      +                             ret = (Std_ReturnType)0x00;
  1295   0019F6  0E00               	movlw	0
  1296   0019F8  6FB5               	movwf	lcd_8bit_send_command@ret& (0+255),b
  1297                           
  1298                           ;ECU_Layer/Chr_LCD/ecu_chr_lcd.c: 323:     }
  1299   0019FA  EF3A  F00D         	goto	l6295
  1300   0019FE                     l6279:
  1301                           
  1302                           ; BSR set to: 0
  1303   0019FE  C0AE  F05C         	movff	lcd_8bit_send_command@lcd,gpio_pin_write_logic@_pin_config
  1304   001A02  C0AF  F05D         	movff	lcd_8bit_send_command@lcd+1,gpio_pin_write_logic@_pin_config+1
  1305   001A06  0E00               	movlw	0
  1306   001A08  6E5E               	movwf	gpio_pin_write_logic@logic^0,c
  1307   001A0A  EC04  F00C         	call	_gpio_pin_write_logic	;wreg free
  1308   001A0E                     
  1309                           ;ECU_Layer/Chr_LCD/ecu_chr_lcd.c: 328:         for(l_pin_counter = 0; l_pin_counter < 8;
      +                           ++l_pin_counter)
  1310   001A0E  0E00               	movlw	0
  1311   001A10  0100               	movlb	0	; () banked
  1312   001A12  6FB6               	movwf	lcd_8bit_send_command@l_pin_counter& (0+255),b
  1313   001A14                     l6287:
  1314                           
  1315                           ; BSR set to: 0
  1316   001A14  51B6               	movf	lcd_8bit_send_command@l_pin_counter& (0+255),w,b
  1317   001A16  25AE               	addwf	lcd_8bit_send_command@lcd& (0+255),w,b
  1318   001A18  6FB1               	movwf	??_lcd_8bit_send_command& (0+255),b
  1319   001A1A  0E00               	movlw	0
  1320   001A1C  21AF               	addwfc	(lcd_8bit_send_command@lcd+1)& (0+255),w,b
  1321   001A1E  6FB2               	movwf	(??_lcd_8bit_send_command+1)& (0+255),b
  1322   001A20  0E02               	movlw	2
  1323   001A22  25B1               	addwf	??_lcd_8bit_send_command& (0+255),w,b
  1324   001A24  6E5C               	movwf	gpio_pin_write_logic@_pin_config^0,c
  1325   001A26  0E00               	movlw	0
  1326   001A28  21B2               	addwfc	(??_lcd_8bit_send_command+1)& (0+255),w,b
  1327   001A2A  6E5D               	movwf	(gpio_pin_write_logic@_pin_config+1)^0,c
  1328   001A2C  C0B6  F0B3         	movff	lcd_8bit_send_command@l_pin_counter,??_lcd_8bit_send_command+2
  1329   001A30  C0B0  F0B4         	movff	lcd_8bit_send_command@command,??_lcd_8bit_send_command+3
  1330   001A34  2BB3               	incf	(??_lcd_8bit_send_command+2)& (0+255),f,b
  1331   001A36  EF1F  F00D         	goto	u4994
  1332   001A3A                     u4995:
  1333   001A3A  90D8               	bcf	status,0,c
  1334   001A3C  33B4               	rrcf	(??_lcd_8bit_send_command+3)& (0+255),f,b
  1335   001A3E                     u4994:
  1336   001A3E  2FB3               	decfsz	(??_lcd_8bit_send_command+2)& (0+255),f,b
  1337   001A40  EF1D  F00D         	goto	u4995
  1338   001A44  0100               	movlb	0	; () banked
  1339   001A46  51B4               	movf	(??_lcd_8bit_send_command+3)& (0+255),w,b
  1340   001A48  0B01               	andlw	1
  1341   001A4A  6E5E               	movwf	gpio_pin_write_logic@logic^0,c
  1342   001A4C  EC04  F00C         	call	_gpio_pin_write_logic	;wreg free
  1343   001A50                     
  1344                           ;ECU_Layer/Chr_LCD/ecu_chr_lcd.c: 331:         }
  1345   001A50  0100               	movlb	0	; () banked
  1346   001A52  2BB6               	incf	lcd_8bit_send_command@l_pin_counter& (0+255),f,b
  1347   001A54                     
  1348                           ; BSR set to: 0
  1349   001A54  0E07               	movlw	7
  1350   001A56  65B6               	cpfsgt	lcd_8bit_send_command@l_pin_counter& (0+255),b
  1351   001A58  EF30  F00D         	goto	u5001
  1352   001A5C  EF32  F00D         	goto	u5000
  1353   001A60                     u5001:
  1354   001A60  EF0A  F00D         	goto	l6287
  1355   001A64                     u5000:
  1356   001A64                     
  1357                           ; BSR set to: 0
  1358                           ;ECU_Layer/Chr_LCD/ecu_chr_lcd.c: 332:         ret = lcd_8bit_send_enable_signal(lcd);
  1359   001A64  C0AE  F066         	movff	lcd_8bit_send_command@lcd,lcd_8bit_send_enable_signal@lcd
  1360   001A68  C0AF  F067         	movff	lcd_8bit_send_command@lcd+1,lcd_8bit_send_enable_signal@lcd+1
  1361   001A6C  EC7C  F00F         	call	_lcd_8bit_send_enable_signal	;wreg free
  1362   001A70  0100               	movlb	0	; () banked
  1363   001A72  6FB5               	movwf	lcd_8bit_send_command@ret& (0+255),b
  1364   001A74                     l6295:
  1365                           
  1366                           ; BSR set to: 0
  1367                           ;ECU_Layer/Chr_LCD/ecu_chr_lcd.c: 334:     return ret;
  1368   001A74  51B5               	movf	lcd_8bit_send_command@ret& (0+255),w,b
  1369   001A76                     
  1370                           ; BSR set to: 0
  1371   001A76  0012               	return		;funcret
  1372   001A78                     __end_of_lcd_8bit_send_command:
  1373                           	callstack 0
  1374                           
  1375 ;; *************** function _lcd_8bit_send_enable_signal *****************
  1376 ;; Defined at:
  1377 ;;		line 590 in file "ECU_Layer/Chr_LCD/ecu_chr_lcd.c"
  1378 ;; Parameters:    Size  Location     Type
  1379 ;;  lcd             2   27[COMRAM] PTR const struct .
  1380 ;;		 -> lcd_2(10), 
  1381 ;; Auto vars:     Size  Location     Type
  1382 ;;  ret             1   29[COMRAM] unsigned char 
  1383 ;; Return value:  Size  Location     Type
  1384 ;;                  1    wreg      unsigned char 
  1385 ;; Registers used:
  1386 ;;		wreg, fsr2l, fsr2h, status,2, status,0, prodl, prodh, cstack
  1387 ;; Tracked objects:
  1388 ;;		On entry : 0/0
  1389 ;;		On exit  : 0/0
  1390 ;;		Unchanged: 0/0
  1391 ;; Data sizes:     COMRAM   BANK0   BANK1   BANK2   BANK3   BANK4   BANK5   BANK6   BANK7   BANK8   BANK9  BANK10  BANK1
      +1  BANK12  BANK13  BANK14  BANK15
  1392 ;;      Params:         2       0       0       0       0       0       0       0       0       0       0       0       
      +0       0       0       0       0
  1393 ;;      Locals:         1       0       0       0       0       0       0       0       0       0       0       0       
      +0       0       0       0       0
  1394 ;;      Temps:          0       0       0       0       0       0       0       0       0       0       0       0       
      +0       0       0       0       0
  1395 ;;      Totals:         3       0       0       0       0       0       0       0       0       0       0       0       
      +0       0       0       0       0
  1396 ;;Total ram usage:        3 bytes
  1397 ;; Hardware stack levels used: 1
  1398 ;; Hardware stack levels required when called: 6
  1399 ;; This function calls:
  1400 ;;		_gpio_pin_write_logic
  1401 ;; This function is called by:
  1402 ;;		_lcd_8bit_send_command
  1403 ;;		_lcd_8bit_send_char_data
  1404 ;; This function uses a non-reentrant model
  1405 ;;
  1406                           
  1407                           	psect	text6
  1408   001EF8                     __ptext6:
  1409                           	callstack 0
  1410   001EF8                     _lcd_8bit_send_enable_signal:
  1411                           	callstack 20
  1412   001EF8  0E01               	movlw	1
  1413   001EFA  2466               	addwf	lcd_8bit_send_enable_signal@lcd^0,w,c
  1414   001EFC  6E5C               	movwf	gpio_pin_write_logic@_pin_config^0,c
  1415   001EFE  0E00               	movlw	0
  1416   001F00  2067               	addwfc	(lcd_8bit_send_enable_signal@lcd+1)^0,w,c
  1417   001F02  6E5D               	movwf	(gpio_pin_write_logic@_pin_config+1)^0,c
  1418   001F04  0E01               	movlw	1
  1419   001F06  6E5E               	movwf	gpio_pin_write_logic@logic^0,c
  1420   001F08  EC04  F00C         	call	_gpio_pin_write_logic	;wreg free
  1421   001F0C                     
  1422                           ;ECU_Layer/Chr_LCD/ecu_chr_lcd.c: 594:     _delay((unsigned long)((5)*(8000000UL/4000000
      +                          .0)));
  1423   001F0C  0E03               	movlw	3
  1424   001F0E                     u5627:
  1425   001F0E  2EE8               	decfsz	wreg,f,c
  1426   001F10  D7FE               	bra	u5627
  1427   001F12  F000               	nop	
  1428   001F14                     
  1429                           ;ECU_Layer/Chr_LCD/ecu_chr_lcd.c: 595:     ret = gpio_pin_write_logic(&(lcd->lcd_en), GP
      +                          IO_LOW);
  1430   001F14  0E01               	movlw	1
  1431   001F16  2466               	addwf	lcd_8bit_send_enable_signal@lcd^0,w,c
  1432   001F18  6E5C               	movwf	gpio_pin_write_logic@_pin_config^0,c
  1433   001F1A  0E00               	movlw	0
  1434   001F1C  2067               	addwfc	(lcd_8bit_send_enable_signal@lcd+1)^0,w,c
  1435   001F1E  6E5D               	movwf	(gpio_pin_write_logic@_pin_config+1)^0,c
  1436   001F20  0E00               	movlw	0
  1437   001F22  6E5E               	movwf	gpio_pin_write_logic@logic^0,c
  1438   001F24  EC04  F00C         	call	_gpio_pin_write_logic	;wreg free
  1439   001F28  6E68               	movwf	lcd_8bit_send_enable_signal@ret^0,c
  1440   001F2A                     
  1441                           ;ECU_Layer/Chr_LCD/ecu_chr_lcd.c: 596:     return ret;
  1442   001F2A  5068               	movf	lcd_8bit_send_enable_signal@ret^0,w,c
  1443   001F2C  0012               	return		;funcret
  1444   001F2E                     __end_of_lcd_8bit_send_enable_signal:
  1445                           	callstack 0
  1446                           
  1447 ;; *************** function _lcd_4bit_intialize *****************
  1448 ;; Defined at:
  1449 ;;		line 73 in file "ECU_Layer/Chr_LCD/ecu_chr_lcd.c"
  1450 ;; Parameters:    Size  Location     Type
  1451 ;;  lcd             2    5[BANK0 ] PTR const struct .
  1452 ;;		 -> lcd_1(6), 
  1453 ;; Auto vars:     Size  Location     Type
  1454 ;;  ret             1   10[BANK0 ] unsigned char 
  1455 ;;  l_data_pins_    1    9[BANK0 ] unsigned char 
  1456 ;; Return value:  Size  Location     Type
  1457 ;;                  1    wreg      unsigned char 
  1458 ;; Registers used:
  1459 ;;		wreg, fsr2l, fsr2h, status,2, status,0, prodl, prodh, cstack
  1460 ;; Tracked objects:
  1461 ;;		On entry : 0/0
  1462 ;;		On exit  : 0/0
  1463 ;;		Unchanged: 0/0
  1464 ;; Data sizes:     COMRAM   BANK0   BANK1   BANK2   BANK3   BANK4   BANK5   BANK6   BANK7   BANK8   BANK9  BANK10  BANK1
      +1  BANK12  BANK13  BANK14  BANK15
  1465 ;;      Params:         0       2       0       0       0       0       0       0       0       0       0       0       
      +0       0       0       0       0
  1466 ;;      Locals:         0       2       0       0       0       0       0       0       0       0       0       0       
      +0       0       0       0       0
  1467 ;;      Temps:          0       2       0       0       0       0       0       0       0       0       0       0       
      +0       0       0       0       0
  1468 ;;      Totals:         0       6       0       0       0       0       0       0       0       0       0       0       
      +0       0       0       0       0
  1469 ;;Total ram usage:        6 bytes
  1470 ;; Hardware stack levels used: 1
  1471 ;; Hardware stack levels required when called: 8
  1472 ;; This function calls:
  1473 ;;		_gpio_pin_intialize
  1474 ;;		_lcd_4bit_send_command
  1475 ;; This function is called by:
  1476 ;;		_ecu_layer_intialize
  1477 ;; This function uses a non-reentrant model
  1478 ;;
  1479                           
  1480                           	psect	text7
  1481   001578                     __ptext7:
  1482                           	callstack 0
  1483   001578                     _lcd_4bit_intialize:
  1484                           	callstack 20
  1485   001578                     
  1486                           ;ECU_Layer/Chr_LCD/ecu_chr_lcd.c: 76:     uint8 l_data_pins_counter = 0;
  1487   001578  0E00               	movlw	0
  1488   00157A  0100               	movlb	0	; () banked
  1489   00157C  6FB7               	movwf	lcd_4bit_intialize@l_data_pins_counter& (0+255),b
  1490   00157E                     
  1491                           ; BSR set to: 0
  1492                           ;ECU_Layer/Chr_LCD/ecu_chr_lcd.c: 77:     if(((void*)0) == lcd)
  1493   00157E  51B3               	movf	lcd_4bit_intialize@lcd& (0+255),w,b
  1494   001580  11B4               	iorwf	(lcd_4bit_intialize@lcd+1)& (0+255),w,b
  1495   001582  A4D8               	btfss	status,2,c
  1496   001584  EFC6  F00A         	goto	u5011
  1497   001588  EFC8  F00A         	goto	u5010
  1498   00158C                     u5011:
  1499   00158C  EFCC  F00A         	goto	l6305
  1500   001590                     u5010:
  1501   001590                     
  1502                           ; BSR set to: 0
  1503                           ;ECU_Layer/Chr_LCD/ecu_chr_lcd.c: 78:     {;ECU_Layer/Chr_LCD/ecu_chr_lcd.c: 79:        
      +                           ret = (Std_ReturnType)0x00;
  1504   001590  0E00               	movlw	0
  1505   001592  6FB8               	movwf	lcd_4bit_intialize@ret& (0+255),b
  1506                           
  1507                           ;ECU_Layer/Chr_LCD/ecu_chr_lcd.c: 80:     }
  1508   001594  EF60  F00B         	goto	l6341
  1509   001598                     l6305:
  1510                           
  1511                           ; BSR set to: 0
  1512                           ;ECU_Layer/Chr_LCD/ecu_chr_lcd.c: 82:     {;ECU_Layer/Chr_LCD/ecu_chr_lcd.c: 83:        
      +                           ret = gpio_pin_intialize(&(lcd->lcd_rs));
  1513   001598  C0B3  F066         	movff	lcd_4bit_intialize@lcd,gpio_pin_intialize@_pin_config
  1514   00159C  C0B4  F067         	movff	lcd_4bit_intialize@lcd+1,gpio_pin_intialize@_pin_config+1
  1515   0015A0  EC44  F00E         	call	_gpio_pin_intialize	;wreg free
  1516   0015A4  0100               	movlb	0	; () banked
  1517   0015A6  6FB8               	movwf	lcd_4bit_intialize@ret& (0+255),b
  1518                           
  1519                           ;ECU_Layer/Chr_LCD/ecu_chr_lcd.c: 84:         ret = gpio_pin_intialize(&(lcd->lcd_en));
  1520   0015A8  0E01               	movlw	1
  1521   0015AA  25B3               	addwf	lcd_4bit_intialize@lcd& (0+255),w,b
  1522   0015AC  6E66               	movwf	gpio_pin_intialize@_pin_config^0,c
  1523   0015AE  0E00               	movlw	0
  1524   0015B0  21B4               	addwfc	(lcd_4bit_intialize@lcd+1)& (0+255),w,b
  1525   0015B2  6E67               	movwf	(gpio_pin_intialize@_pin_config+1)^0,c
  1526   0015B4  EC44  F00E         	call	_gpio_pin_intialize	;wreg free
  1527   0015B8  0100               	movlb	0	; () banked
  1528   0015BA  6FB8               	movwf	lcd_4bit_intialize@ret& (0+255),b
  1529   0015BC                     
  1530                           ; BSR set to: 0
  1531                           ;ECU_Layer/Chr_LCD/ecu_chr_lcd.c: 85:         for(l_data_pins_counter = 0; l_data_pins_c
      +                          ounter < 4; l_data_pins_counter++)
  1532   0015BC  0E00               	movlw	0
  1533   0015BE  6FB7               	movwf	lcd_4bit_intialize@l_data_pins_counter& (0+255),b
  1534   0015C0                     l6313:
  1535                           
  1536                           ; BSR set to: 0
  1537   0015C0  51B7               	movf	lcd_4bit_intialize@l_data_pins_counter& (0+255),w,b
  1538   0015C2  25B3               	addwf	lcd_4bit_intialize@lcd& (0+255),w,b
  1539   0015C4  6FB5               	movwf	??_lcd_4bit_intialize& (0+255),b
  1540   0015C6  0E00               	movlw	0
  1541   0015C8  21B4               	addwfc	(lcd_4bit_intialize@lcd+1)& (0+255),w,b
  1542   0015CA  6FB6               	movwf	(??_lcd_4bit_intialize+1)& (0+255),b
  1543   0015CC  0E02               	movlw	2
  1544   0015CE  25B5               	addwf	??_lcd_4bit_intialize& (0+255),w,b
  1545   0015D0  6E66               	movwf	gpio_pin_intialize@_pin_config^0,c
  1546   0015D2  0E00               	movlw	0
  1547   0015D4  21B6               	addwfc	(??_lcd_4bit_intialize+1)& (0+255),w,b
  1548   0015D6  6E67               	movwf	(gpio_pin_intialize@_pin_config+1)^0,c
  1549   0015D8  EC44  F00E         	call	_gpio_pin_intialize	;wreg free
  1550   0015DC                     
  1551                           ;ECU_Layer/Chr_LCD/ecu_chr_lcd.c: 88:         }
  1552   0015DC  0100               	movlb	0	; () banked
  1553   0015DE  2BB7               	incf	lcd_4bit_intialize@l_data_pins_counter& (0+255),f,b
  1554   0015E0                     
  1555                           ; BSR set to: 0
  1556   0015E0  0E03               	movlw	3
  1557   0015E2  65B7               	cpfsgt	lcd_4bit_intialize@l_data_pins_counter& (0+255),b
  1558   0015E4  EFF6  F00A         	goto	u5021
  1559   0015E8  EFF8  F00A         	goto	u5020
  1560   0015EC                     u5021:
  1561   0015EC  EFE0  F00A         	goto	l6313
  1562   0015F0                     u5020:
  1563   0015F0                     
  1564                           ; BSR set to: 0
  1565                           ;ECU_Layer/Chr_LCD/ecu_chr_lcd.c: 89:         _delay((unsigned long)((20)*(8000000UL/400
      +                          0.0)));
  1566   0015F0  0E34               	movlw	52
  1567   0015F2  0100               	movlb	0	; () banked
  1568   0015F4  6FB5               	movwf	??_lcd_4bit_intialize& (0+255),b
  1569   0015F6  0EF1               	movlw	241
  1570   0015F8                     u5637:
  1571   0015F8  2EE8               	decfsz	wreg,f,c
  1572   0015FA  D7FE               	bra	u5637
  1573   0015FC  2FB5               	decfsz	??_lcd_4bit_intialize& (0+255),f,b
  1574   0015FE  D7FC               	bra	u5637
  1575   001600  D000               	nop2	
  1576   001602  C0B3  F0AF         	movff	lcd_4bit_intialize@lcd,lcd_4bit_send_command@lcd
  1577   001606  C0B4  F0B0         	movff	lcd_4bit_intialize@lcd+1,lcd_4bit_send_command@lcd+1
  1578   00160A  0E38               	movlw	56
  1579   00160C  0100               	movlb	0	; () banked
  1580   00160E  6FB1               	movwf	lcd_4bit_send_command@command& (0+255),b
  1581   001610  ECC6  F00D         	call	_lcd_4bit_send_command	;wreg free
  1582   001614                     
  1583                           ;ECU_Layer/Chr_LCD/ecu_chr_lcd.c: 91:         _delay((unsigned long)((5)*(8000000UL/4000
      +                          .0)));
  1584   001614  0E0D               	movlw	13
  1585   001616  0100               	movlb	0	; () banked
  1586   001618  6FB5               	movwf	??_lcd_4bit_intialize& (0+255),b
  1587   00161A  0EFB               	movlw	251
  1588   00161C                     u5647:
  1589   00161C  2EE8               	decfsz	wreg,f,c
  1590   00161E  D7FE               	bra	u5647
  1591   001620  2FB5               	decfsz	??_lcd_4bit_intialize& (0+255),f,b
  1592   001622  D7FC               	bra	u5647
  1593   001624  D000               	nop2	
  1594   001626  C0B3  F0AF         	movff	lcd_4bit_intialize@lcd,lcd_4bit_send_command@lcd
  1595   00162A  C0B4  F0B0         	movff	lcd_4bit_intialize@lcd+1,lcd_4bit_send_command@lcd+1
  1596   00162E  0E38               	movlw	56
  1597   001630  0100               	movlb	0	; () banked
  1598   001632  6FB1               	movwf	lcd_4bit_send_command@command& (0+255),b
  1599   001634  ECC6  F00D         	call	_lcd_4bit_send_command	;wreg free
  1600   001638                     
  1601                           ;ECU_Layer/Chr_LCD/ecu_chr_lcd.c: 93:         _delay((unsigned long)((150)*(8000000UL/40
      +                          00000.0)));
  1602   001638  0E64               	movlw	100
  1603   00163A                     u5657:
  1604   00163A  2EE8               	decfsz	wreg,f,c
  1605   00163C  D7FE               	bra	u5657
  1606   00163E  C0B3  F0AF         	movff	lcd_4bit_intialize@lcd,lcd_4bit_send_command@lcd
  1607   001642  C0B4  F0B0         	movff	lcd_4bit_intialize@lcd+1,lcd_4bit_send_command@lcd+1
  1608   001646  0E38               	movlw	56
  1609   001648  0100               	movlb	0	; () banked
  1610   00164A  6FB1               	movwf	lcd_4bit_send_command@command& (0+255),b
  1611   00164C  ECC6  F00D         	call	_lcd_4bit_send_command	;wreg free
  1612   001650  C0B3  F0AF         	movff	lcd_4bit_intialize@lcd,lcd_4bit_send_command@lcd
  1613   001654  C0B4  F0B0         	movff	lcd_4bit_intialize@lcd+1,lcd_4bit_send_command@lcd+1
  1614   001658  0E01               	movlw	1
  1615   00165A  0100               	movlb	0	; () banked
  1616   00165C  6FB1               	movwf	lcd_4bit_send_command@command& (0+255),b
  1617   00165E  ECC6  F00D         	call	_lcd_4bit_send_command	;wreg free
  1618   001662  C0B3  F0AF         	movff	lcd_4bit_intialize@lcd,lcd_4bit_send_command@lcd
  1619   001666  C0B4  F0B0         	movff	lcd_4bit_intialize@lcd+1,lcd_4bit_send_command@lcd+1
  1620   00166A  0E02               	movlw	2
  1621   00166C  0100               	movlb	0	; () banked
  1622   00166E  6FB1               	movwf	lcd_4bit_send_command@command& (0+255),b
  1623   001670  ECC6  F00D         	call	_lcd_4bit_send_command	;wreg free
  1624   001674  C0B3  F0AF         	movff	lcd_4bit_intialize@lcd,lcd_4bit_send_command@lcd
  1625   001678  C0B4  F0B0         	movff	lcd_4bit_intialize@lcd+1,lcd_4bit_send_command@lcd+1
  1626   00167C  0E06               	movlw	6
  1627   00167E  0100               	movlb	0	; () banked
  1628   001680  6FB1               	movwf	lcd_4bit_send_command@command& (0+255),b
  1629   001682  ECC6  F00D         	call	_lcd_4bit_send_command	;wreg free
  1630   001686  C0B3  F0AF         	movff	lcd_4bit_intialize@lcd,lcd_4bit_send_command@lcd
  1631   00168A  C0B4  F0B0         	movff	lcd_4bit_intialize@lcd+1,lcd_4bit_send_command@lcd+1
  1632   00168E  0E0C               	movlw	12
  1633   001690  0100               	movlb	0	; () banked
  1634   001692  6FB1               	movwf	lcd_4bit_send_command@command& (0+255),b
  1635   001694  ECC6  F00D         	call	_lcd_4bit_send_command	;wreg free
  1636   001698  C0B3  F0AF         	movff	lcd_4bit_intialize@lcd,lcd_4bit_send_command@lcd
  1637   00169C  C0B4  F0B0         	movff	lcd_4bit_intialize@lcd+1,lcd_4bit_send_command@lcd+1
  1638   0016A0  0E28               	movlw	40
  1639   0016A2  0100               	movlb	0	; () banked
  1640   0016A4  6FB1               	movwf	lcd_4bit_send_command@command& (0+255),b
  1641   0016A6  ECC6  F00D         	call	_lcd_4bit_send_command	;wreg free
  1642   0016AA                     
  1643                           ;ECU_Layer/Chr_LCD/ecu_chr_lcd.c: 101:         ret = lcd_4bit_send_command(lcd, 0x80);
  1644   0016AA  C0B3  F0AF         	movff	lcd_4bit_intialize@lcd,lcd_4bit_send_command@lcd
  1645   0016AE  C0B4  F0B0         	movff	lcd_4bit_intialize@lcd+1,lcd_4bit_send_command@lcd+1
  1646   0016B2  0E80               	movlw	128
  1647   0016B4  0100               	movlb	0	; () banked
  1648   0016B6  6FB1               	movwf	lcd_4bit_send_command@command& (0+255),b
  1649   0016B8  ECC6  F00D         	call	_lcd_4bit_send_command	;wreg free
  1650   0016BC  0100               	movlb	0	; () banked
  1651   0016BE  6FB8               	movwf	lcd_4bit_intialize@ret& (0+255),b
  1652   0016C0                     l6341:
  1653                           
  1654                           ; BSR set to: 0
  1655                           ;ECU_Layer/Chr_LCD/ecu_chr_lcd.c: 103:     return ret;
  1656   0016C0  51B8               	movf	lcd_4bit_intialize@ret& (0+255),w,b
  1657   0016C2                     
  1658                           ; BSR set to: 0
  1659   0016C2  0012               	return		;funcret
  1660   0016C4                     __end_of_lcd_4bit_intialize:
  1661                           	callstack 0
  1662                           
  1663 ;; *************** function _lcd_4bit_send_command *****************
  1664 ;; Defined at:
  1665 ;;		line 114 in file "ECU_Layer/Chr_LCD/ecu_chr_lcd.c"
  1666 ;; Parameters:    Size  Location     Type
  1667 ;;  lcd             2    1[BANK0 ] PTR const struct .
  1668 ;;		 -> lcd_1(6), 
  1669 ;;  command         1    3[BANK0 ] unsigned char 
  1670 ;; Auto vars:     Size  Location     Type
  1671 ;;  ret             1    4[BANK0 ] unsigned char 
  1672 ;; Return value:  Size  Location     Type
  1673 ;;                  1    wreg      unsigned char 
  1674 ;; Registers used:
  1675 ;;		wreg, fsr2l, fsr2h, status,2, status,0, prodl, prodh, cstack
  1676 ;; Tracked objects:
  1677 ;;		On entry : 0/0
  1678 ;;		On exit  : 0/0
  1679 ;;		Unchanged: 0/0
  1680 ;; Data sizes:     COMRAM   BANK0   BANK1   BANK2   BANK3   BANK4   BANK5   BANK6   BANK7   BANK8   BANK9  BANK10  BANK1
      +1  BANK12  BANK13  BANK14  BANK15
  1681 ;;      Params:         0       3       0       0       0       0       0       0       0       0       0       0       
      +0       0       0       0       0
  1682 ;;      Locals:         0       1       0       0       0       0       0       0       0       0       0       0       
      +0       0       0       0       0
  1683 ;;      Temps:          0       0       0       0       0       0       0       0       0       0       0       0       
      +0       0       0       0       0
  1684 ;;      Totals:         0       4       0       0       0       0       0       0       0       0       0       0       
      +0       0       0       0       0
  1685 ;;Total ram usage:        4 bytes
  1686 ;; Hardware stack levels used: 1
  1687 ;; Hardware stack levels required when called: 7
  1688 ;; This function calls:
  1689 ;;		_gpio_pin_write_logic
  1690 ;;		_lcd_4bit_send_enable_signal
  1691 ;;		_lcd_send_4bits
  1692 ;; This function is called by:
  1693 ;;		_lcd_4bit_intialize
  1694 ;;		_lcd_4bit_send_custom_char
  1695 ;;		_lcd_4bit_set_cursor
  1696 ;; This function uses a non-reentrant model
  1697 ;;
  1698                           
  1699                           	psect	text8
  1700   001B8C                     __ptext8:
  1701                           	callstack 0
  1702   001B8C                     _lcd_4bit_send_command:
  1703                           	callstack 20
  1704   001B8C                     
  1705                           ;ECU_Layer/Chr_LCD/ecu_chr_lcd.c: 117:     if(((void*)0) == lcd)
  1706   001B8C  0100               	movlb	0	; () banked
  1707   001B8E  51AF               	movf	lcd_4bit_send_command@lcd& (0+255),w,b
  1708   001B90  11B0               	iorwf	(lcd_4bit_send_command@lcd+1)& (0+255),w,b
  1709   001B92  A4D8               	btfss	status,2,c
  1710   001B94  EFCE  F00D         	goto	u4971
  1711   001B98  EFD0  F00D         	goto	u4970
  1712   001B9C                     u4971:
  1713   001B9C  EFD4  F00D         	goto	l6267
  1714   001BA0                     u4970:
  1715   001BA0                     
  1716                           ; BSR set to: 0
  1717                           ;ECU_Layer/Chr_LCD/ecu_chr_lcd.c: 118:     {;ECU_Layer/Chr_LCD/ecu_chr_lcd.c: 119:      
      +                             ret = (Std_ReturnType)0x00;
  1718   001BA0  0E00               	movlw	0
  1719   001BA2  6FB2               	movwf	lcd_4bit_send_command@ret& (0+255),b
  1720                           
  1721                           ;ECU_Layer/Chr_LCD/ecu_chr_lcd.c: 120:     }
  1722   001BA4  EF03  F00E         	goto	l6269
  1723   001BA8                     l6267:
  1724                           
  1725                           ; BSR set to: 0
  1726                           ;ECU_Layer/Chr_LCD/ecu_chr_lcd.c: 122:     {;ECU_Layer/Chr_LCD/ecu_chr_lcd.c: 123:      
      +                             ret = gpio_pin_write_logic(&(lcd->lcd_rs), GPIO_LOW);
  1727   001BA8  C0AF  F05C         	movff	lcd_4bit_send_command@lcd,gpio_pin_write_logic@_pin_config
  1728   001BAC  C0B0  F05D         	movff	lcd_4bit_send_command@lcd+1,gpio_pin_write_logic@_pin_config+1
  1729   001BB0  0E00               	movlw	0
  1730   001BB2  6E5E               	movwf	gpio_pin_write_logic@logic^0,c
  1731   001BB4  EC04  F00C         	call	_gpio_pin_write_logic	;wreg free
  1732   001BB8  0100               	movlb	0	; () banked
  1733   001BBA  6FB2               	movwf	lcd_4bit_send_command@ret& (0+255),b
  1734                           
  1735                           ;ECU_Layer/Chr_LCD/ecu_chr_lcd.c: 124:         ret = lcd_send_4bits(lcd, command >> 4);
  1736   001BBC  C0AF  F066         	movff	lcd_4bit_send_command@lcd,lcd_send_4bits@lcd
  1737   001BC0  C0B0  F067         	movff	lcd_4bit_send_command@lcd+1,lcd_send_4bits@lcd+1
  1738   001BC4  39B1               	swapf	lcd_4bit_send_command@command& (0+255),w,b
  1739   001BC6  0B0F               	andlw	15
  1740   001BC8  6E68               	movwf	lcd_send_4bits@_data_command^0,c
  1741   001BCA  ECB6  F00E         	call	_lcd_send_4bits	;wreg free
  1742   001BCE  0100               	movlb	0	; () banked
  1743   001BD0  6FB2               	movwf	lcd_4bit_send_command@ret& (0+255),b
  1744                           
  1745                           ;ECU_Layer/Chr_LCD/ecu_chr_lcd.c: 125:         ret = lcd_4bit_send_enable_signal(lcd);
  1746   001BD2  C0AF  F066         	movff	lcd_4bit_send_command@lcd,lcd_4bit_send_enable_signal@lcd
  1747   001BD6  C0B0  F067         	movff	lcd_4bit_send_command@lcd+1,lcd_4bit_send_enable_signal@lcd+1
  1748   001BDA  EC97  F00F         	call	_lcd_4bit_send_enable_signal	;wreg free
  1749   001BDE  0100               	movlb	0	; () banked
  1750   001BE0  6FB2               	movwf	lcd_4bit_send_command@ret& (0+255),b
  1751                           
  1752                           ;ECU_Layer/Chr_LCD/ecu_chr_lcd.c: 126:         ret = lcd_send_4bits(lcd, command);
  1753   001BE2  C0AF  F066         	movff	lcd_4bit_send_command@lcd,lcd_send_4bits@lcd
  1754   001BE6  C0B0  F067         	movff	lcd_4bit_send_command@lcd+1,lcd_send_4bits@lcd+1
  1755   001BEA  C0B1  F068         	movff	lcd_4bit_send_command@command,lcd_send_4bits@_data_command
  1756   001BEE  ECB6  F00E         	call	_lcd_send_4bits	;wreg free
  1757   001BF2  0100               	movlb	0	; () banked
  1758   001BF4  6FB2               	movwf	lcd_4bit_send_command@ret& (0+255),b
  1759                           
  1760                           ;ECU_Layer/Chr_LCD/ecu_chr_lcd.c: 127:         ret = lcd_4bit_send_enable_signal(lcd);
  1761   001BF6  C0AF  F066         	movff	lcd_4bit_send_command@lcd,lcd_4bit_send_enable_signal@lcd
  1762   001BFA  C0B0  F067         	movff	lcd_4bit_send_command@lcd+1,lcd_4bit_send_enable_signal@lcd+1
  1763   001BFE  EC97  F00F         	call	_lcd_4bit_send_enable_signal	;wreg free
  1764   001C02  0100               	movlb	0	; () banked
  1765   001C04  6FB2               	movwf	lcd_4bit_send_command@ret& (0+255),b
  1766   001C06                     l6269:
  1767                           
  1768                           ; BSR set to: 0
  1769                           ;ECU_Layer/Chr_LCD/ecu_chr_lcd.c: 129:     return ret;
  1770   001C06  51B2               	movf	lcd_4bit_send_command@ret& (0+255),w,b
  1771   001C08                     
  1772                           ; BSR set to: 0
  1773   001C08  0012               	return		;funcret
  1774   001C0A                     __end_of_lcd_4bit_send_command:
  1775                           	callstack 0
  1776                           
  1777 ;; *************** function _lcd_send_4bits *****************
  1778 ;; Defined at:
  1779 ;;		line 557 in file "ECU_Layer/Chr_LCD/ecu_chr_lcd.c"
  1780 ;; Parameters:    Size  Location     Type
  1781 ;;  lcd             2   27[COMRAM] PTR const struct .
  1782 ;;		 -> lcd_1(6), 
  1783 ;;  _data_comman    1   29[COMRAM] unsigned char 
  1784 ;; Auto vars:     Size  Location     Type
  1785 ;;  ret             1    0[BANK0 ] unsigned char 
  1786 ;; Return value:  Size  Location     Type
  1787 ;;                  1    wreg      unsigned char 
  1788 ;; Registers used:
  1789 ;;		wreg, fsr2l, fsr2h, status,2, status,0, prodl, prodh, cstack
  1790 ;; Tracked objects:
  1791 ;;		On entry : 0/0
  1792 ;;		On exit  : 0/0
  1793 ;;		Unchanged: 0/0
  1794 ;; Data sizes:     COMRAM   BANK0   BANK1   BANK2   BANK3   BANK4   BANK5   BANK6   BANK7   BANK8   BANK9  BANK10  BANK1
      +1  BANK12  BANK13  BANK14  BANK15
  1795 ;;      Params:         3       0       0       0       0       0       0       0       0       0       0       0       
      +0       0       0       0       0
  1796 ;;      Locals:         0       1       0       0       0       0       0       0       0       0       0       0       
      +0       0       0       0       0
  1797 ;;      Temps:          0       0       0       0       0       0       0       0       0       0       0       0       
      +0       0       0       0       0
  1798 ;;      Totals:         3       1       0       0       0       0       0       0       0       0       0       0       
      +0       0       0       0       0
  1799 ;;Total ram usage:        4 bytes
  1800 ;; Hardware stack levels used: 1
  1801 ;; Hardware stack levels required when called: 6
  1802 ;; This function calls:
  1803 ;;		_gpio_pin_write_logic
  1804 ;; This function is called by:
  1805 ;;		_lcd_4bit_send_command
  1806 ;;		_lcd_4bit_send_char_data
  1807 ;; This function uses a non-reentrant model
  1808 ;;
  1809                           
  1810                           	psect	text9
  1811   001D6C                     __ptext9:
  1812                           	callstack 0
  1813   001D6C                     _lcd_send_4bits:
  1814                           	callstack 20
  1815   001D6C  0E02               	movlw	2
  1816   001D6E  2466               	addwf	lcd_send_4bits@lcd^0,w,c
  1817   001D70  6E5C               	movwf	gpio_pin_write_logic@_pin_config^0,c
  1818   001D72  0E00               	movlw	0
  1819   001D74  2067               	addwfc	(lcd_send_4bits@lcd+1)^0,w,c
  1820   001D76  6E5D               	movwf	(gpio_pin_write_logic@_pin_config+1)^0,c
  1821   001D78  5068               	movf	lcd_send_4bits@_data_command^0,w,c
  1822   001D7A  0B01               	andlw	1
  1823   001D7C  6E5E               	movwf	gpio_pin_write_logic@logic^0,c
  1824   001D7E  EC04  F00C         	call	_gpio_pin_write_logic	;wreg free
  1825   001D82  0E03               	movlw	3
  1826   001D84  2466               	addwf	lcd_send_4bits@lcd^0,w,c
  1827   001D86  6E5C               	movwf	gpio_pin_write_logic@_pin_config^0,c
  1828   001D88  0E00               	movlw	0
  1829   001D8A  2067               	addwfc	(lcd_send_4bits@lcd+1)^0,w,c
  1830   001D8C  6E5D               	movwf	(gpio_pin_write_logic@_pin_config+1)^0,c
  1831   001D8E  90D8               	bcf	status,0,c
  1832   001D90  3068               	rrcf	lcd_send_4bits@_data_command^0,w,c
  1833   001D92  0B01               	andlw	1
  1834   001D94  6E5E               	movwf	gpio_pin_write_logic@logic^0,c
  1835   001D96  EC04  F00C         	call	_gpio_pin_write_logic	;wreg free
  1836   001D9A  0E04               	movlw	4
  1837   001D9C  2466               	addwf	lcd_send_4bits@lcd^0,w,c
  1838   001D9E  6E5C               	movwf	gpio_pin_write_logic@_pin_config^0,c
  1839   001DA0  0E00               	movlw	0
  1840   001DA2  2067               	addwfc	(lcd_send_4bits@lcd+1)^0,w,c
  1841   001DA4  6E5D               	movwf	(gpio_pin_write_logic@_pin_config+1)^0,c
  1842   001DA6  4068               	rrncf	lcd_send_4bits@_data_command^0,w,c
  1843   001DA8  42E8               	rrncf	wreg,f,c
  1844   001DAA  0B3F               	andlw	63
  1845   001DAC  0B01               	andlw	1
  1846   001DAE  6E5E               	movwf	gpio_pin_write_logic@logic^0,c
  1847   001DB0  EC04  F00C         	call	_gpio_pin_write_logic	;wreg free
  1848   001DB4                     
  1849                           ;ECU_Layer/Chr_LCD/ecu_chr_lcd.c: 563:     ret = gpio_pin_write_logic(&(lcd->lcd_data[3]
      +                          ), (_data_command >> 3) & (uint8)0x01);
  1850   001DB4  0E05               	movlw	5
  1851   001DB6  2466               	addwf	lcd_send_4bits@lcd^0,w,c
  1852   001DB8  6E5C               	movwf	gpio_pin_write_logic@_pin_config^0,c
  1853   001DBA  0E00               	movlw	0
  1854   001DBC  2067               	addwfc	(lcd_send_4bits@lcd+1)^0,w,c
  1855   001DBE  6E5D               	movwf	(gpio_pin_write_logic@_pin_config+1)^0,c
  1856   001DC0  3868               	swapf	lcd_send_4bits@_data_command^0,w,c
  1857   001DC2  46E8               	rlncf	wreg,f,c
  1858   001DC4  0B1F               	andlw	31
  1859   001DC6  0B01               	andlw	1
  1860   001DC8  6E5E               	movwf	gpio_pin_write_logic@logic^0,c
  1861   001DCA  EC04  F00C         	call	_gpio_pin_write_logic	;wreg free
  1862   001DCE  0100               	movlb	0	; () banked
  1863   001DD0  6FAE               	movwf	lcd_send_4bits@ret& (0+255),b
  1864                           
  1865                           ;ECU_Layer/Chr_LCD/ecu_chr_lcd.c: 564:     return ret;
  1866   001DD2  51AE               	movf	lcd_send_4bits@ret& (0+255),w,b
  1867   001DD4                     
  1868                           ; BSR set to: 0
  1869   001DD4  0012               	return		;funcret
  1870   001DD6                     __end_of_lcd_send_4bits:
  1871                           	callstack 0
  1872                           
  1873 ;; *************** function _lcd_4bit_send_enable_signal *****************
  1874 ;; Defined at:
  1875 ;;		line 574 in file "ECU_Layer/Chr_LCD/ecu_chr_lcd.c"
  1876 ;; Parameters:    Size  Location     Type
  1877 ;;  lcd             2   27[COMRAM] PTR const struct .
  1878 ;;		 -> lcd_1(6), 
  1879 ;; Auto vars:     Size  Location     Type
  1880 ;;  ret             1   29[COMRAM] unsigned char 
  1881 ;; Return value:  Size  Location     Type
  1882 ;;                  1    wreg      unsigned char 
  1883 ;; Registers used:
  1884 ;;		wreg, fsr2l, fsr2h, status,2, status,0, prodl, prodh, cstack
  1885 ;; Tracked objects:
  1886 ;;		On entry : 0/0
  1887 ;;		On exit  : 0/0
  1888 ;;		Unchanged: 0/0
  1889 ;; Data sizes:     COMRAM   BANK0   BANK1   BANK2   BANK3   BANK4   BANK5   BANK6   BANK7   BANK8   BANK9  BANK10  BANK1
      +1  BANK12  BANK13  BANK14  BANK15
  1890 ;;      Params:         2       0       0       0       0       0       0       0       0       0       0       0       
      +0       0       0       0       0
  1891 ;;      Locals:         1       0       0       0       0       0       0       0       0       0       0       0       
      +0       0       0       0       0
  1892 ;;      Temps:          0       0       0       0       0       0       0       0       0       0       0       0       
      +0       0       0       0       0
  1893 ;;      Totals:         3       0       0       0       0       0       0       0       0       0       0       0       
      +0       0       0       0       0
  1894 ;;Total ram usage:        3 bytes
  1895 ;; Hardware stack levels used: 1
  1896 ;; Hardware stack levels required when called: 6
  1897 ;; This function calls:
  1898 ;;		_gpio_pin_write_logic
  1899 ;; This function is called by:
  1900 ;;		_lcd_4bit_send_command
  1901 ;;		_lcd_4bit_send_char_data
  1902 ;; This function uses a non-reentrant model
  1903 ;;
  1904                           
  1905                           	psect	text10
  1906   001F2E                     __ptext10:
  1907                           	callstack 0
  1908   001F2E                     _lcd_4bit_send_enable_signal:
  1909                           	callstack 20
  1910   001F2E  0E01               	movlw	1
  1911   001F30  2466               	addwf	lcd_4bit_send_enable_signal@lcd^0,w,c
  1912   001F32  6E5C               	movwf	gpio_pin_write_logic@_pin_config^0,c
  1913   001F34  0E00               	movlw	0
  1914   001F36  2067               	addwfc	(lcd_4bit_send_enable_signal@lcd+1)^0,w,c
  1915   001F38  6E5D               	movwf	(gpio_pin_write_logic@_pin_config+1)^0,c
  1916   001F3A  0E01               	movlw	1
  1917   001F3C  6E5E               	movwf	gpio_pin_write_logic@logic^0,c
  1918   001F3E  EC04  F00C         	call	_gpio_pin_write_logic	;wreg free
  1919   001F42                     
  1920                           ;ECU_Layer/Chr_LCD/ecu_chr_lcd.c: 578:     _delay((unsigned long)((5)*(8000000UL/4000000
      +                          .0)));
  1921   001F42  0E03               	movlw	3
  1922   001F44                     u5667:
  1923   001F44  2EE8               	decfsz	wreg,f,c
  1924   001F46  D7FE               	bra	u5667
  1925   001F48  F000               	nop	
  1926   001F4A                     
  1927                           ;ECU_Layer/Chr_LCD/ecu_chr_lcd.c: 579:     ret = gpio_pin_write_logic(&(lcd->lcd_en), GP
      +                          IO_LOW);
  1928   001F4A  0E01               	movlw	1
  1929   001F4C  2466               	addwf	lcd_4bit_send_enable_signal@lcd^0,w,c
  1930   001F4E  6E5C               	movwf	gpio_pin_write_logic@_pin_config^0,c
  1931   001F50  0E00               	movlw	0
  1932   001F52  2067               	addwfc	(lcd_4bit_send_enable_signal@lcd+1)^0,w,c
  1933   001F54  6E5D               	movwf	(gpio_pin_write_logic@_pin_config+1)^0,c
  1934   001F56  0E00               	movlw	0
  1935   001F58  6E5E               	movwf	gpio_pin_write_logic@logic^0,c
  1936   001F5A  EC04  F00C         	call	_gpio_pin_write_logic	;wreg free
  1937   001F5E  6E68               	movwf	lcd_4bit_send_enable_signal@ret^0,c
  1938   001F60                     
  1939                           ;ECU_Layer/Chr_LCD/ecu_chr_lcd.c: 580:     return ret;
  1940   001F60  5068               	movf	lcd_4bit_send_enable_signal@ret^0,w,c
  1941   001F62  0012               	return		;funcret
  1942   001F64                     __end_of_lcd_4bit_send_enable_signal:
  1943                           	callstack 0
  1944                           
  1945 ;; *************** function _gpio_pin_intialize *****************
  1946 ;; Defined at:
  1947 ;;		line 167 in file "MCAL_Layer/GPIO/hal_gpio.c"
  1948 ;; Parameters:    Size  Location     Type
  1949 ;;  _pin_config     2   27[COMRAM] PTR const struct .
  1950 ;;		 -> lcd_2.lcd_data(8), lcd_2(10), lcd_1.lcd_data(4), lcd_1(6), 
  1951 ;;		 -> relay_initialize@pin_obj(1), led_initialize@pin_obj(1), 
  1952 ;; Auto vars:     Size  Location     Type
  1953 ;;  ret             1    0[BANK0 ] unsigned char 
  1954 ;; Return value:  Size  Location     Type
  1955 ;;                  1    wreg      unsigned char 
  1956 ;; Registers used:
  1957 ;;		wreg, fsr2l, fsr2h, status,2, status,0, prodl, prodh, cstack
  1958 ;; Tracked objects:
  1959 ;;		On entry : 0/0
  1960 ;;		On exit  : 0/0
  1961 ;;		Unchanged: 0/0
  1962 ;; Data sizes:     COMRAM   BANK0   BANK1   BANK2   BANK3   BANK4   BANK5   BANK6   BANK7   BANK8   BANK9  BANK10  BANK1
      +1  BANK12  BANK13  BANK14  BANK15
  1963 ;;      Params:         2       0       0       0       0       0       0       0       0       0       0       0       
      +0       0       0       0       0
  1964 ;;      Locals:         0       1       0       0       0       0       0       0       0       0       0       0       
      +0       0       0       0       0
  1965 ;;      Temps:          1       0       0       0       0       0       0       0       0       0       0       0       
      +0       0       0       0       0
  1966 ;;      Totals:         3       1       0       0       0       0       0       0       0       0       0       0       
      +0       0       0       0       0
  1967 ;;Total ram usage:        4 bytes
  1968 ;; Hardware stack levels used: 1
  1969 ;; Hardware stack levels required when called: 6
  1970 ;; This function calls:
  1971 ;;		_gpio_pin_direction_intialize
  1972 ;;		_gpio_pin_write_logic
  1973 ;; This function is called by:
  1974 ;;		_lcd_4bit_intialize
  1975 ;;		_lcd_8bit_intialize
  1976 ;;		_led_initialize
  1977 ;;		_seven_segment_initialize
  1978 ;;		_dc_motor_initialize
  1979 ;;		_keypad_initialize
  1980 ;;		_relay_initialize
  1981 ;;		_CCP_Init
  1982 ;; This function uses a non-reentrant model
  1983 ;;
  1984                           
  1985                           	psect	text11
  1986   001C88                     __ptext11:
  1987                           	callstack 0
  1988   001C88                     _gpio_pin_intialize:
  1989                           	callstack 23
  1990   001C88                     
  1991                           ;MCAL_Layer/GPIO/hal_gpio.c: 170:     if(((void*)0) == _pin_config || _pin_config->pin >
      +                           8 -1)
  1992   001C88  5066               	movf	gpio_pin_intialize@_pin_config^0,w,c
  1993   001C8A  1067               	iorwf	(gpio_pin_intialize@_pin_config+1)^0,w,c
  1994   001C8C  B4D8               	btfsc	status,2,c
  1995   001C8E  EF4B  F00E         	goto	u4951
  1996   001C92  EF4D  F00E         	goto	u4950
  1997   001C96                     u4951:
  1998   001C96  EF5E  F00E         	goto	l6253
  1999   001C9A                     u4950:
  2000   001C9A  C066  FFD9         	movff	gpio_pin_intialize@_pin_config,fsr2l
  2001   001C9E  C067  FFDA         	movff	gpio_pin_intialize@_pin_config+1,fsr2h
  2002   001CA2  30DF               	rrcf	223,w,c
  2003   001CA4  32E8               	rrcf	wreg,f,c
  2004   001CA6  32E8               	rrcf	wreg,f,c
  2005   001CA8  0B07               	andlw	7
  2006   001CAA  6E68               	movwf	??_gpio_pin_intialize^0,c
  2007   001CAC  0E07               	movlw	7
  2008   001CAE  6468               	cpfsgt	??_gpio_pin_intialize^0,c
  2009   001CB0  EF5C  F00E         	goto	u4961
  2010   001CB4  EF5E  F00E         	goto	u4960
  2011   001CB8                     u4961:
  2012   001CB8  EF63  F00E         	goto	l6255
  2013   001CBC                     u4960:
  2014   001CBC                     l6253:
  2015                           
  2016                           ;MCAL_Layer/GPIO/hal_gpio.c: 171:     {;MCAL_Layer/GPIO/hal_gpio.c: 172:         ret = (
      +                          Std_ReturnType)0x00;
  2017   001CBC  0E00               	movlw	0
  2018   001CBE  0100               	movlb	0	; () banked
  2019   001CC0  6FAE               	movwf	gpio_pin_intialize@ret& (0+255),b
  2020                           
  2021                           ;MCAL_Layer/GPIO/hal_gpio.c: 173:     }
  2022   001CC2  EF7B  F00E         	goto	l6257
  2023   001CC6                     l6255:
  2024                           
  2025                           ;MCAL_Layer/GPIO/hal_gpio.c: 175:     {;MCAL_Layer/GPIO/hal_gpio.c: 176:         ret = g
      +                          pio_pin_direction_intialize(_pin_config);
  2026   001CC6  C066  F05C         	movff	gpio_pin_intialize@_pin_config,gpio_pin_direction_intialize@_pin_config
  2027   001CCA  C067  F05D         	movff	gpio_pin_intialize@_pin_config+1,gpio_pin_direction_intialize@_pin_config+1
  2028   001CCE  EC62  F00B         	call	_gpio_pin_direction_intialize	;wreg free
  2029   001CD2  0100               	movlb	0	; () banked
  2030   001CD4  6FAE               	movwf	gpio_pin_intialize@ret& (0+255),b
  2031                           
  2032                           ;MCAL_Layer/GPIO/hal_gpio.c: 177:         ret = gpio_pin_write_logic(_pin_config, _pin_c
      +                          onfig->logic);
  2033   001CD6  C066  F05C         	movff	gpio_pin_intialize@_pin_config,gpio_pin_write_logic@_pin_config
  2034   001CDA  C067  F05D         	movff	gpio_pin_intialize@_pin_config+1,gpio_pin_write_logic@_pin_config+1
  2035   001CDE  C066  FFD9         	movff	gpio_pin_intialize@_pin_config,fsr2l
  2036   001CE2  C067  FFDA         	movff	gpio_pin_intialize@_pin_config+1,fsr2h
  2037   001CE6  0E00               	movlw	0
  2038   001CE8  BEDF               	btfsc	indf2,7,c
  2039   001CEA  0E01               	movlw	1
  2040   001CEC  6E5E               	movwf	gpio_pin_write_logic@logic^0,c
  2041   001CEE  EC04  F00C         	call	_gpio_pin_write_logic	;wreg free
  2042   001CF2  0100               	movlb	0	; () banked
  2043   001CF4  6FAE               	movwf	gpio_pin_intialize@ret& (0+255),b
  2044   001CF6                     l6257:
  2045                           
  2046                           ; BSR set to: 0
  2047                           ;MCAL_Layer/GPIO/hal_gpio.c: 179:     return ret;
  2048   001CF6  51AE               	movf	gpio_pin_intialize@ret& (0+255),w,b
  2049   001CF8                     
  2050                           ; BSR set to: 0
  2051   001CF8  0012               	return		;funcret
  2052   001CFA                     __end_of_gpio_pin_intialize:
  2053                           	callstack 0
  2054                           
  2055 ;; *************** function _gpio_pin_write_logic *****************
  2056 ;; Defined at:
  2057 ;;		line 88 in file "MCAL_Layer/GPIO/hal_gpio.c"
  2058 ;; Parameters:    Size  Location     Type
  2059 ;;  _pin_config     2   17[COMRAM] PTR const struct .
  2060 ;;		 -> lcd_2.lcd_data(8), lcd_2(10), lcd_1.lcd_data(4), lcd_1(6), 
  2061 ;;		 -> relay_turn_off@pin_obj(1), relay_turn_on@pin_obj(1), relay_initialize@pin_obj(1), led_turn_off@pin_obj(1), 
  2062 ;;		 -> led_turn_on@pin_obj(1), led_initialize@pin_obj(1), 
  2063 ;;  logic           1   19[COMRAM] enum E2968
  2064 ;; Auto vars:     Size  Location     Type
  2065 ;;  ret             1   26[COMRAM] unsigned char 
  2066 ;; Return value:  Size  Location     Type
  2067 ;;                  1    wreg      unsigned char 
  2068 ;; Registers used:
  2069 ;;		wreg, fsr2l, fsr2h, status,2, status,0, prodl, prodh
  2070 ;; Tracked objects:
  2071 ;;		On entry : 0/0
  2072 ;;		On exit  : 0/0
  2073 ;;		Unchanged: 0/0
  2074 ;; Data sizes:     COMRAM   BANK0   BANK1   BANK2   BANK3   BANK4   BANK5   BANK6   BANK7   BANK8   BANK9  BANK10  BANK1
      +1  BANK12  BANK13  BANK14  BANK15
  2075 ;;      Params:         3       0       0       0       0       0       0       0       0       0       0       0       
      +0       0       0       0       0
  2076 ;;      Locals:         1       0       0       0       0       0       0       0       0       0       0       0       
      +0       0       0       0       0
  2077 ;;      Temps:          6       0       0       0       0       0       0       0       0       0       0       0       
      +0       0       0       0       0
  2078 ;;      Totals:        10       0       0       0       0       0       0       0       0       0       0       0       
      +0       0       0       0       0
  2079 ;;Total ram usage:       10 bytes
  2080 ;; Hardware stack levels used: 1
  2081 ;; Hardware stack levels required when called: 5
  2082 ;; This function calls:
  2083 ;;		Nothing
  2084 ;; This function is called by:
  2085 ;;		_lcd_4bit_send_command
  2086 ;;		_lcd_8bit_send_command
  2087 ;;		_lcd_send_4bits
  2088 ;;		_lcd_4bit_send_enable_signal
  2089 ;;		_lcd_8bit_send_enable_signal
  2090 ;;		_gpio_pin_intialize
  2091 ;;		_seven_segment_write_number
  2092 ;;		_lcd_4bit_send_char_data
  2093 ;;		_lcd_8bit_send_char_data
  2094 ;;		_dc_motor_move_right
  2095 ;;		_dc_motor_move_left
  2096 ;;		_dc_motor_stop
  2097 ;;		_keypad_get_value
  2098 ;;		_led_turn_on
  2099 ;;		_led_turn_off
  2100 ;;		_relay_turn_on
  2101 ;;		_relay_turn_off
  2102 ;; This function uses a non-reentrant model
  2103 ;;
  2104                           
  2105                           	psect	text12
  2106   001808                     __ptext12:
  2107                           	callstack 0
  2108   001808                     _gpio_pin_write_logic:
  2109                           	callstack 23
  2110   001808                     
  2111                           ;MCAL_Layer/GPIO/hal_gpio.c: 88: Std_ReturnType gpio_pin_write_logic(const pin_config_t 
      +                          *_pin_config, logic_t logic);MCAL_Layer/GPIO/hal_gpio.c: 89: {;MCAL_Layer/GPIO/hal_gpio.
      +                          c: 90:     Std_ReturnType ret = (Std_ReturnType)0x01;
  2112   001808  0E01               	movlw	1
  2113   00180A  6E65               	movwf	gpio_pin_write_logic@ret^0,c
  2114   00180C                     
  2115                           ;MCAL_Layer/GPIO/hal_gpio.c: 91:     if(((void*)0) == _pin_config || _pin_config->pin > 
      +                          8 -1)
  2116   00180C  505C               	movf	gpio_pin_write_logic@_pin_config^0,w,c
  2117   00180E  105D               	iorwf	(gpio_pin_write_logic@_pin_config+1)^0,w,c
  2118   001810  B4D8               	btfsc	status,2,c
  2119   001812  EF0D  F00C         	goto	u4851
  2120   001816  EF0F  F00C         	goto	u4850
  2121   00181A                     u4851:
  2122   00181A  EF20  F00C         	goto	l6169
  2123   00181E                     u4850:
  2124   00181E  C05C  FFD9         	movff	gpio_pin_write_logic@_pin_config,fsr2l
  2125   001822  C05D  FFDA         	movff	gpio_pin_write_logic@_pin_config+1,fsr2h
  2126   001826  30DF               	rrcf	223,w,c
  2127   001828  32E8               	rrcf	wreg,f,c
  2128   00182A  32E8               	rrcf	wreg,f,c
  2129   00182C  0B07               	andlw	7
  2130   00182E  6E5F               	movwf	??_gpio_pin_write_logic^0,c
  2131   001830  0E07               	movlw	7
  2132   001832  645F               	cpfsgt	??_gpio_pin_write_logic^0,c
  2133   001834  EF1E  F00C         	goto	u4861
  2134   001838  EF20  F00C         	goto	u4860
  2135   00183C                     u4861:
  2136   00183C  EF83  F00C         	goto	l6177
  2137   001840                     u4860:
  2138   001840                     l6169:
  2139                           
  2140                           ;MCAL_Layer/GPIO/hal_gpio.c: 92:     {;MCAL_Layer/GPIO/hal_gpio.c: 93:         ret = (St
      +                          d_ReturnType)0x00;
  2141   001840  0E00               	movlw	0
  2142   001842  6E65               	movwf	gpio_pin_write_logic@ret^0,c
  2143                           
  2144                           ;MCAL_Layer/GPIO/hal_gpio.c: 94:     }
  2145   001844  EF98  F00C         	goto	l6179
  2146   001848                     l6171:
  2147                           
  2148                           ;MCAL_Layer/GPIO/hal_gpio.c: 100:                 (*lat_registers[_pin_config->port] &= 
      +                          ~((uint8)1 << _pin_config->pin));
  2149   001848  C05C  FFD9         	movff	gpio_pin_write_logic@_pin_config,fsr2l
  2150   00184C  C05D  FFDA         	movff	gpio_pin_write_logic@_pin_config+1,fsr2h
  2151   001850  30DF               	rrcf	223,w,c
  2152   001852  32E8               	rrcf	wreg,f,c
  2153   001854  32E8               	rrcf	wreg,f,c
  2154   001856  0B07               	andlw	7
  2155   001858  6E5F               	movwf	??_gpio_pin_write_logic^0,c
  2156   00185A  0E01               	movlw	1
  2157   00185C  6E60               	movwf	(??_gpio_pin_write_logic+1)^0,c
  2158   00185E  2A5F               	incf	??_gpio_pin_write_logic^0,f,c
  2159   001860  EF34  F00C         	goto	u4874
  2160   001864                     u4875:
  2161   001864  90D8               	bcf	status,0,c
  2162   001866  3660               	rlcf	(??_gpio_pin_write_logic+1)^0,f,c
  2163   001868                     u4874:
  2164   001868  2E5F               	decfsz	??_gpio_pin_write_logic^0,f,c
  2165   00186A  EF32  F00C         	goto	u4875
  2166   00186E  5060               	movf	(??_gpio_pin_write_logic+1)^0,w,c
  2167   001870  0AFF               	xorlw	255
  2168   001872  6E61               	movwf	(??_gpio_pin_write_logic+2)^0,c
  2169   001874  C05C  FFD9         	movff	gpio_pin_write_logic@_pin_config,fsr2l
  2170   001878  C05D  FFDA         	movff	gpio_pin_write_logic@_pin_config+1,fsr2h
  2171   00187C  50DF               	movf	223,w,c
  2172   00187E  0B07               	andlw	7
  2173   001880  6E62               	movwf	(??_gpio_pin_write_logic+3)^0,c
  2174   001882  5062               	movf	(??_gpio_pin_write_logic+3)^0,w,c
  2175   001884  0D02               	mullw	2
  2176   001886  0E8A               	movlw	low _lat_registers
  2177   001888  24F3               	addwf	243,w,c
  2178   00188A  6ED9               	movwf	fsr2l,c
  2179   00188C  0E00               	movlw	high _lat_registers
  2180   00188E  20F4               	addwfc	prodh,w,c
  2181   001890  6EDA               	movwf	fsr2h,c
  2182   001892  CFDE F063          	movff	postinc2,??_gpio_pin_write_logic+4
  2183   001896  CFDD F064          	movff	postdec2,??_gpio_pin_write_logic+5
  2184   00189A  C063  FFD9         	movff	??_gpio_pin_write_logic+4,fsr2l
  2185   00189E  C064  FFDA         	movff	??_gpio_pin_write_logic+5,fsr2h
  2186   0018A2  5061               	movf	(??_gpio_pin_write_logic+2)^0,w,c
  2187   0018A4  16DF               	andwf	indf2,f,c
  2188                           
  2189                           ;MCAL_Layer/GPIO/hal_gpio.c: 101:                 break;
  2190   0018A6  EF98  F00C         	goto	l6179
  2191   0018AA                     l6173:
  2192                           
  2193                           ;MCAL_Layer/GPIO/hal_gpio.c: 103:                 (*lat_registers[_pin_config->port] |= 
      +                          ((uint8)1 << _pin_config->pin));
  2194   0018AA  C05C  FFD9         	movff	gpio_pin_write_logic@_pin_config,fsr2l
  2195   0018AE  C05D  FFDA         	movff	gpio_pin_write_logic@_pin_config+1,fsr2h
  2196   0018B2  30DF               	rrcf	223,w,c
  2197   0018B4  32E8               	rrcf	wreg,f,c
  2198   0018B6  32E8               	rrcf	wreg,f,c
  2199   0018B8  0B07               	andlw	7
  2200   0018BA  6E5F               	movwf	??_gpio_pin_write_logic^0,c
  2201   0018BC  0E01               	movlw	1
  2202   0018BE  6E60               	movwf	(??_gpio_pin_write_logic+1)^0,c
  2203   0018C0  2A5F               	incf	??_gpio_pin_write_logic^0,f,c
  2204   0018C2  EF65  F00C         	goto	u4884
  2205   0018C6                     u4885:
  2206   0018C6  90D8               	bcf	status,0,c
  2207   0018C8  3660               	rlcf	(??_gpio_pin_write_logic+1)^0,f,c
  2208   0018CA                     u4884:
  2209   0018CA  2E5F               	decfsz	??_gpio_pin_write_logic^0,f,c
  2210   0018CC  EF63  F00C         	goto	u4885
  2211   0018D0  C05C  FFD9         	movff	gpio_pin_write_logic@_pin_config,fsr2l
  2212   0018D4  C05D  FFDA         	movff	gpio_pin_write_logic@_pin_config+1,fsr2h
  2213   0018D8  50DF               	movf	223,w,c
  2214   0018DA  0B07               	andlw	7
  2215   0018DC  6E61               	movwf	(??_gpio_pin_write_logic+2)^0,c
  2216   0018DE  5061               	movf	(??_gpio_pin_write_logic+2)^0,w,c
  2217   0018E0  0D02               	mullw	2
  2218   0018E2  0E8A               	movlw	low _lat_registers
  2219   0018E4  24F3               	addwf	243,w,c
  2220   0018E6  6ED9               	movwf	fsr2l,c
  2221   0018E8  0E00               	movlw	high _lat_registers
  2222   0018EA  20F4               	addwfc	prodh,w,c
  2223   0018EC  6EDA               	movwf	fsr2h,c
  2224   0018EE  CFDE F062          	movff	postinc2,??_gpio_pin_write_logic+3
  2225   0018F2  CFDD F063          	movff	postdec2,??_gpio_pin_write_logic+4
  2226   0018F6  C062  FFD9         	movff	??_gpio_pin_write_logic+3,fsr2l
  2227   0018FA  C063  FFDA         	movff	??_gpio_pin_write_logic+4,fsr2h
  2228   0018FE  5060               	movf	(??_gpio_pin_write_logic+1)^0,w,c
  2229   001900  12DF               	iorwf	indf2,f,c
  2230                           
  2231                           ;MCAL_Layer/GPIO/hal_gpio.c: 104:                 break;
  2232   001902  EF98  F00C         	goto	l6179
  2233   001906                     l6177:
  2234   001906  505E               	movf	gpio_pin_write_logic@logic^0,w,c
  2235   001908  6E5F               	movwf	??_gpio_pin_write_logic^0,c
  2236   00190A  6A60               	clrf	(??_gpio_pin_write_logic+1)^0,c
  2237                           
  2238                           ; Switch on 2 bytes has been partitioned into a top level switch of size 1, and 1 sub-sw
      +                          itches
  2239                           ; Switch size 1, requested type "simple"
  2240                           ; Number of cases is 1, Range of values is 0 to 0
  2241                           ; switch strategies available:
  2242                           ; Name         Instructions Cycles
  2243                           ; simple_byte            4     3 (average)
  2244                           ;	Chosen strategy is simple_byte
  2245   00190C  5060               	movf	(??_gpio_pin_write_logic+1)^0,w,c
  2246   00190E  0A00               	xorlw	0	; case 0
  2247   001910  B4D8               	btfsc	status,2,c
  2248   001912  EF8D  F00C         	goto	l7017
  2249   001916  EF20  F00C         	goto	l6169
  2250   00191A                     l7017:
  2251                           
  2252                           ; Switch size 1, requested type "simple"
  2253                           ; Number of cases is 2, Range of values is 0 to 1
  2254                           ; switch strategies available:
  2255                           ; Name         Instructions Cycles
  2256                           ; simple_byte            7     4 (average)
  2257                           ;	Chosen strategy is simple_byte
  2258   00191A  505F               	movf	??_gpio_pin_write_logic^0,w,c
  2259   00191C  0A00               	xorlw	0	; case 0
  2260   00191E  B4D8               	btfsc	status,2,c
  2261   001920  EF24  F00C         	goto	l6171
  2262   001924  0A01               	xorlw	1	; case 1
  2263   001926  B4D8               	btfsc	status,2,c
  2264   001928  EF55  F00C         	goto	l6173
  2265   00192C  EF20  F00C         	goto	l6169
  2266   001930                     l6179:
  2267                           
  2268                           ;MCAL_Layer/GPIO/hal_gpio.c: 108:     return ret;
  2269   001930  5065               	movf	gpio_pin_write_logic@ret^0,w,c
  2270   001932  0012               	return		;funcret
  2271   001934                     __end_of_gpio_pin_write_logic:
  2272                           	callstack 0
  2273                           
  2274 ;; *************** function _gpio_pin_direction_intialize *****************
  2275 ;; Defined at:
  2276 ;;		line 31 in file "MCAL_Layer/GPIO/hal_gpio.c"
  2277 ;; Parameters:    Size  Location     Type
  2278 ;;  _pin_config     2   17[COMRAM] PTR const struct .
  2279 ;;		 -> lcd_2.lcd_data(8), lcd_2(10), lcd_1.lcd_data(4), lcd_1(6), 
  2280 ;;		 -> relay_initialize@pin_obj(1), led_initialize@pin_obj(1), 
  2281 ;; Auto vars:     Size  Location     Type
  2282 ;;  ret             1   25[COMRAM] unsigned char 
  2283 ;; Return value:  Size  Location     Type
  2284 ;;                  1    wreg      unsigned char 
  2285 ;; Registers used:
  2286 ;;		wreg, fsr2l, fsr2h, status,2, status,0, prodl, prodh
  2287 ;; Tracked objects:
  2288 ;;		On entry : 0/0
  2289 ;;		On exit  : 0/0
  2290 ;;		Unchanged: 0/0
  2291 ;; Data sizes:     COMRAM   BANK0   BANK1   BANK2   BANK3   BANK4   BANK5   BANK6   BANK7   BANK8   BANK9  BANK10  BANK1
      +1  BANK12  BANK13  BANK14  BANK15
  2292 ;;      Params:         2       0       0       0       0       0       0       0       0       0       0       0       
      +0       0       0       0       0
  2293 ;;      Locals:         1       0       0       0       0       0       0       0       0       0       0       0       
      +0       0       0       0       0
  2294 ;;      Temps:          6       0       0       0       0       0       0       0       0       0       0       0       
      +0       0       0       0       0
  2295 ;;      Totals:         9       0       0       0       0       0       0       0       0       0       0       0       
      +0       0       0       0       0
  2296 ;;Total ram usage:        9 bytes
  2297 ;; Hardware stack levels used: 1
  2298 ;; Hardware stack levels required when called: 5
  2299 ;; This function calls:
  2300 ;;		Nothing
  2301 ;; This function is called by:
  2302 ;;		_gpio_pin_intialize
  2303 ;;		_button_initialize
  2304 ;;		_keypad_initialize
  2305 ;;		_Interrupt_RBx_Init
  2306 ;;		_Interrupt_INTx_Pin_Init
  2307 ;; This function uses a non-reentrant model
  2308 ;;
  2309                           
  2310                           	psect	text13
  2311   0016C4                     __ptext13:
  2312                           	callstack 0
  2313   0016C4                     _gpio_pin_direction_intialize:
  2314                           	callstack 23
  2315   0016C4                     
  2316                           ;MCAL_Layer/GPIO/hal_gpio.c: 31: Std_ReturnType gpio_pin_direction_intialize(const pin_c
      +                          onfig_t *_pin_config);MCAL_Layer/GPIO/hal_gpio.c: 32: {;MCAL_Layer/GPIO/hal_gpio.c: 33: 
      +                              Std_ReturnType ret = (Std_ReturnType)0x01;
  2317   0016C4  0E01               	movlw	1
  2318   0016C6  6E64               	movwf	gpio_pin_direction_intialize@ret^0,c
  2319   0016C8                     
  2320                           ;MCAL_Layer/GPIO/hal_gpio.c: 34:     if(((void*)0) == _pin_config || _pin_config->pin > 
      +                          8 -1)
  2321   0016C8  505C               	movf	gpio_pin_direction_intialize@_pin_config^0,w,c
  2322   0016CA  105D               	iorwf	(gpio_pin_direction_intialize@_pin_config+1)^0,w,c
  2323   0016CC  B4D8               	btfsc	status,2,c
  2324   0016CE  EF6B  F00B         	goto	u4891
  2325   0016D2  EF6D  F00B         	goto	u4890
  2326   0016D6                     u4891:
  2327   0016D6  EF7E  F00B         	goto	l6193
  2328   0016DA                     u4890:
  2329   0016DA  C05C  FFD9         	movff	gpio_pin_direction_intialize@_pin_config,fsr2l
  2330   0016DE  C05D  FFDA         	movff	gpio_pin_direction_intialize@_pin_config+1,fsr2h
  2331   0016E2  30DF               	rrcf	223,w,c
  2332   0016E4  32E8               	rrcf	wreg,f,c
  2333   0016E6  32E8               	rrcf	wreg,f,c
  2334   0016E8  0B07               	andlw	7
  2335   0016EA  6E5E               	movwf	??_gpio_pin_direction_intialize^0,c
  2336   0016EC  0E07               	movlw	7
  2337   0016EE  645E               	cpfsgt	??_gpio_pin_direction_intialize^0,c
  2338   0016F0  EF7C  F00B         	goto	u4901
  2339   0016F4  EF7E  F00B         	goto	u4900
  2340   0016F8                     u4901:
  2341   0016F8  EFE1  F00B         	goto	l6201
  2342   0016FC                     u4900:
  2343   0016FC                     l6193:
  2344                           
  2345                           ;MCAL_Layer/GPIO/hal_gpio.c: 35:     {;MCAL_Layer/GPIO/hal_gpio.c: 36:         ret = (St
      +                          d_ReturnType)0x00;
  2346   0016FC  0E00               	movlw	0
  2347   0016FE  6E64               	movwf	gpio_pin_direction_intialize@ret^0,c
  2348                           
  2349                           ;MCAL_Layer/GPIO/hal_gpio.c: 37:     }
  2350   001700  EF02  F00C         	goto	l6203
  2351   001704                     l6195:
  2352                           
  2353                           ;MCAL_Layer/GPIO/hal_gpio.c: 43:                 (*tris_registers[_pin_config->port] &= 
      +                          ~((uint8)1 << _pin_config->pin));
  2354   001704  C05C  FFD9         	movff	gpio_pin_direction_intialize@_pin_config,fsr2l
  2355   001708  C05D  FFDA         	movff	gpio_pin_direction_intialize@_pin_config+1,fsr2h
  2356   00170C  30DF               	rrcf	223,w,c
  2357   00170E  32E8               	rrcf	wreg,f,c
  2358   001710  32E8               	rrcf	wreg,f,c
  2359   001712  0B07               	andlw	7
  2360   001714  6E5E               	movwf	??_gpio_pin_direction_intialize^0,c
  2361   001716  0E01               	movlw	1
  2362   001718  6E5F               	movwf	(??_gpio_pin_direction_intialize+1)^0,c
  2363   00171A  2A5E               	incf	??_gpio_pin_direction_intialize^0,f,c
  2364   00171C  EF92  F00B         	goto	u4914
  2365   001720                     u4915:
  2366   001720  90D8               	bcf	status,0,c
  2367   001722  365F               	rlcf	(??_gpio_pin_direction_intialize+1)^0,f,c
  2368   001724                     u4914:
  2369   001724  2E5E               	decfsz	??_gpio_pin_direction_intialize^0,f,c
  2370   001726  EF90  F00B         	goto	u4915
  2371   00172A  505F               	movf	(??_gpio_pin_direction_intialize+1)^0,w,c
  2372   00172C  0AFF               	xorlw	255
  2373   00172E  6E60               	movwf	(??_gpio_pin_direction_intialize+2)^0,c
  2374   001730  C05C  FFD9         	movff	gpio_pin_direction_intialize@_pin_config,fsr2l
  2375   001734  C05D  FFDA         	movff	gpio_pin_direction_intialize@_pin_config+1,fsr2h
  2376   001738  50DF               	movf	223,w,c
  2377   00173A  0B07               	andlw	7
  2378   00173C  6E61               	movwf	(??_gpio_pin_direction_intialize+3)^0,c
  2379   00173E  5061               	movf	(??_gpio_pin_direction_intialize+3)^0,w,c
  2380   001740  0D02               	mullw	2
  2381   001742  0E94               	movlw	low _tris_registers
  2382   001744  24F3               	addwf	243,w,c
  2383   001746  6ED9               	movwf	fsr2l,c
  2384   001748  0E00               	movlw	high _tris_registers
  2385   00174A  20F4               	addwfc	prodh,w,c
  2386   00174C  6EDA               	movwf	fsr2h,c
  2387   00174E  CFDE F062          	movff	postinc2,??_gpio_pin_direction_intialize+4
  2388   001752  CFDD F063          	movff	postdec2,??_gpio_pin_direction_intialize+5
  2389   001756  C062  FFD9         	movff	??_gpio_pin_direction_intialize+4,fsr2l
  2390   00175A  C063  FFDA         	movff	??_gpio_pin_direction_intialize+5,fsr2h
  2391   00175E  5060               	movf	(??_gpio_pin_direction_intialize+2)^0,w,c
  2392   001760  16DF               	andwf	indf2,f,c
  2393                           
  2394                           ;MCAL_Layer/GPIO/hal_gpio.c: 44:                 break;
  2395   001762  EF02  F00C         	goto	l6203
  2396   001766                     l6197:
  2397                           
  2398                           ;MCAL_Layer/GPIO/hal_gpio.c: 46:                 (*tris_registers[_pin_config->port] |= 
      +                          ((uint8)1 << _pin_config->pin));
  2399   001766  C05C  FFD9         	movff	gpio_pin_direction_intialize@_pin_config,fsr2l
  2400   00176A  C05D  FFDA         	movff	gpio_pin_direction_intialize@_pin_config+1,fsr2h
  2401   00176E  30DF               	rrcf	223,w,c
  2402   001770  32E8               	rrcf	wreg,f,c
  2403   001772  32E8               	rrcf	wreg,f,c
  2404   001774  0B07               	andlw	7
  2405   001776  6E5E               	movwf	??_gpio_pin_direction_intialize^0,c
  2406   001778  0E01               	movlw	1
  2407   00177A  6E5F               	movwf	(??_gpio_pin_direction_intialize+1)^0,c
  2408   00177C  2A5E               	incf	??_gpio_pin_direction_intialize^0,f,c
  2409   00177E  EFC3  F00B         	goto	u4924
  2410   001782                     u4925:
  2411   001782  90D8               	bcf	status,0,c
  2412   001784  365F               	rlcf	(??_gpio_pin_direction_intialize+1)^0,f,c
  2413   001786                     u4924:
  2414   001786  2E5E               	decfsz	??_gpio_pin_direction_intialize^0,f,c
  2415   001788  EFC1  F00B         	goto	u4925
  2416   00178C  C05C  FFD9         	movff	gpio_pin_direction_intialize@_pin_config,fsr2l
  2417   001790  C05D  FFDA         	movff	gpio_pin_direction_intialize@_pin_config+1,fsr2h
  2418   001794  50DF               	movf	223,w,c
  2419   001796  0B07               	andlw	7
  2420   001798  6E60               	movwf	(??_gpio_pin_direction_intialize+2)^0,c
  2421   00179A  5060               	movf	(??_gpio_pin_direction_intialize+2)^0,w,c
  2422   00179C  0D02               	mullw	2
  2423   00179E  0E94               	movlw	low _tris_registers
  2424   0017A0  24F3               	addwf	243,w,c
  2425   0017A2  6ED9               	movwf	fsr2l,c
  2426   0017A4  0E00               	movlw	high _tris_registers
  2427   0017A6  20F4               	addwfc	prodh,w,c
  2428   0017A8  6EDA               	movwf	fsr2h,c
  2429   0017AA  CFDE F061          	movff	postinc2,??_gpio_pin_direction_intialize+3
  2430   0017AE  CFDD F062          	movff	postdec2,??_gpio_pin_direction_intialize+4
  2431   0017B2  C061  FFD9         	movff	??_gpio_pin_direction_intialize+3,fsr2l
  2432   0017B6  C062  FFDA         	movff	??_gpio_pin_direction_intialize+4,fsr2h
  2433   0017BA  505F               	movf	(??_gpio_pin_direction_intialize+1)^0,w,c
  2434   0017BC  12DF               	iorwf	indf2,f,c
  2435                           
  2436                           ;MCAL_Layer/GPIO/hal_gpio.c: 47:                 break;
  2437   0017BE  EF02  F00C         	goto	l6203
  2438   0017C2                     l6201:
  2439   0017C2  C05C  FFD9         	movff	gpio_pin_direction_intialize@_pin_config,fsr2l
  2440   0017C6  C05D  FFDA         	movff	gpio_pin_direction_intialize@_pin_config+1,fsr2h
  2441   0017CA  BCDF               	btfsc	indf2,6,c
  2442   0017CC  EFEA  F00B         	goto	u4931
  2443   0017D0  EFED  F00B         	goto	u4930
  2444   0017D4                     u4931:
  2445   0017D4  0E01               	movlw	1
  2446   0017D6  EFEE  F00B         	goto	u4940
  2447   0017DA                     u4930:
  2448   0017DA  0E00               	movlw	0
  2449   0017DC                     u4940:
  2450   0017DC  6E5E               	movwf	??_gpio_pin_direction_intialize^0,c
  2451   0017DE  6A5F               	clrf	(??_gpio_pin_direction_intialize+1)^0,c
  2452                           
  2453                           ; Switch on 2 bytes has been partitioned into a top level switch of size 1, and 1 sub-sw
      +                          itches
  2454                           ; Switch size 1, requested type "simple"
  2455                           ; Number of cases is 1, Range of values is 0 to 0
  2456                           ; switch strategies available:
  2457                           ; Name         Instructions Cycles
  2458                           ; simple_byte            4     3 (average)
  2459                           ;	Chosen strategy is simple_byte
  2460   0017E0  505F               	movf	(??_gpio_pin_direction_intialize+1)^0,w,c
  2461   0017E2  0A00               	xorlw	0	; case 0
  2462   0017E4  B4D8               	btfsc	status,2,c
  2463   0017E6  EFF7  F00B         	goto	l7019
  2464   0017EA  EF7E  F00B         	goto	l6193
  2465   0017EE                     l7019:
  2466                           
  2467                           ; Switch size 1, requested type "simple"
  2468                           ; Number of cases is 2, Range of values is 0 to 1
  2469                           ; switch strategies available:
  2470                           ; Name         Instructions Cycles
  2471                           ; simple_byte            7     4 (average)
  2472                           ;	Chosen strategy is simple_byte
  2473   0017EE  505E               	movf	??_gpio_pin_direction_intialize^0,w,c
  2474   0017F0  0A00               	xorlw	0	; case 0
  2475   0017F2  B4D8               	btfsc	status,2,c
  2476   0017F4  EF82  F00B         	goto	l6195
  2477   0017F8  0A01               	xorlw	1	; case 1
  2478   0017FA  B4D8               	btfsc	status,2,c
  2479   0017FC  EFB3  F00B         	goto	l6197
  2480   001800  EF7E  F00B         	goto	l6193
  2481   001804                     l6203:
  2482                           
  2483                           ;MCAL_Layer/GPIO/hal_gpio.c: 51:     return ret;
  2484   001804  5064               	movf	gpio_pin_direction_intialize@ret^0,w,c
  2485   001806  0012               	return		;funcret
  2486   001808                     __end_of_gpio_pin_direction_intialize:
  2487                           	callstack 0
  2488                           
  2489 ;; *************** function _Timer1_Read_Value *****************
  2490 ;; Defined at:
  2491 ;;		line 150 in file "MCAL_Layer/Timer1/hal_timer1.c"
  2492 ;; Parameters:    Size  Location     Type
  2493 ;;  _timer          2   17[COMRAM] PTR const struct .
  2494 ;;		 -> counter_obj(6), 
  2495 ;;  _value          2   19[COMRAM] PTR unsigned short 
  2496 ;;		 -> timer1_counter_val(2), 
  2497 ;; Auto vars:     Size  Location     Type
  2498 ;;  ret             1   25[COMRAM] unsigned char 
  2499 ;;  l_tmr1h         1   24[COMRAM] unsigned char 
  2500 ;;  l_tmr1l         1   23[COMRAM] unsigned char 
  2501 ;; Return value:  Size  Location     Type
  2502 ;;                  1    wreg      unsigned char 
  2503 ;; Registers used:
  2504 ;;		wreg, fsr2l, fsr2h, status,2, status,0
  2505 ;; Tracked objects:
  2506 ;;		On entry : 0/0
  2507 ;;		On exit  : 0/0
  2508 ;;		Unchanged: 0/0
  2509 ;; Data sizes:     COMRAM   BANK0   BANK1   BANK2   BANK3   BANK4   BANK5   BANK6   BANK7   BANK8   BANK9  BANK10  BANK1
      +1  BANK12  BANK13  BANK14  BANK15
  2510 ;;      Params:         4       0       0       0       0       0       0       0       0       0       0       0       
      +0       0       0       0       0
  2511 ;;      Locals:         3       0       0       0       0       0       0       0       0       0       0       0       
      +0       0       0       0       0
  2512 ;;      Temps:          2       0       0       0       0       0       0       0       0       0       0       0       
      +0       0       0       0       0
  2513 ;;      Totals:         9       0       0       0       0       0       0       0       0       0       0       0       
      +0       0       0       0       0
  2514 ;;Total ram usage:        9 bytes
  2515 ;; Hardware stack levels used: 1
  2516 ;; Hardware stack levels required when called: 5
  2517 ;; This function calls:
  2518 ;;		Nothing
  2519 ;; This function is called by:
  2520 ;;		_main
  2521 ;; This function uses a non-reentrant model
  2522 ;;
  2523                           
  2524                           	psect	text14
  2525   001DD6                     __ptext14:
  2526                           	callstack 0
  2527   001DD6                     _Timer1_Read_Value:
  2528                           	callstack 25
  2529   001DD6                     
  2530                           ;MCAL_Layer/Timer1/hal_timer1.c: 153:     uint8 l_tmr1l = 0;
  2531   001DD6  0E00               	movlw	0
  2532   001DD8  6E62               	movwf	Timer1_Read_Value@l_tmr1l^0,c
  2533                           
  2534                           ;MCAL_Layer/Timer1/hal_timer1.c: 154:     uint8 l_tmr1h = 0;
  2535   001DDA  0E00               	movlw	0
  2536   001DDC  6E63               	movwf	Timer1_Read_Value@l_tmr1h^0,c
  2537   001DDE                     
  2538                           ;MCAL_Layer/Timer1/hal_timer1.c: 155:     if((((void*)0) == _timer) || (((void*)0) == _v
      +                          alue))
  2539   001DDE  505C               	movf	Timer1_Read_Value@_timer^0,w,c
  2540   001DE0  105D               	iorwf	(Timer1_Read_Value@_timer+1)^0,w,c
  2541   001DE2  B4D8               	btfsc	status,2,c
  2542   001DE4  EFF6  F00E         	goto	u3481
  2543   001DE8  EFF8  F00E         	goto	u3480
  2544   001DEC                     u3481:
  2545   001DEC  EF01  F00F         	goto	l5275
  2546   001DF0                     u3480:
  2547   001DF0  505E               	movf	Timer1_Read_Value@_value^0,w,c
  2548   001DF2  105F               	iorwf	(Timer1_Read_Value@_value+1)^0,w,c
  2549   001DF4  A4D8               	btfss	status,2,c
  2550   001DF6  EFFF  F00E         	goto	u3491
  2551   001DFA  EF01  F00F         	goto	u3490
  2552   001DFE                     u3491:
  2553   001DFE  EF05  F00F         	goto	l1307
  2554   001E02                     u3490:
  2555   001E02                     l5275:
  2556                           
  2557                           ;MCAL_Layer/Timer1/hal_timer1.c: 156:     {;MCAL_Layer/Timer1/hal_timer1.c: 157:        
      +                           ret = (Std_ReturnType)0x00;
  2558   001E02  0E00               	movlw	0
  2559   001E04  6E64               	movwf	Timer1_Read_Value@ret^0,c
  2560                           
  2561                           ;MCAL_Layer/Timer1/hal_timer1.c: 158:     }
  2562   001E06  EF1D  F00F         	goto	l5281
  2563   001E0A                     l1307:
  2564                           
  2565                           ;MCAL_Layer/Timer1/hal_timer1.c: 160:     {;MCAL_Layer/Timer1/hal_timer1.c: 161:        
      +                           l_tmr1l = TMR1L;
  2566   001E0A  CFCE F062          	movff	4046,Timer1_Read_Value@l_tmr1l	;volatile
  2567                           
  2568                           ;MCAL_Layer/Timer1/hal_timer1.c: 162:         l_tmr1h = TMR1H;
  2569   001E0E  CFCF F063          	movff	4047,Timer1_Read_Value@l_tmr1h	;volatile
  2570   001E12                     
  2571                           ;MCAL_Layer/Timer1/hal_timer1.c: 163:         *_value = (uint16)((l_tmr1h << 8) + l_tmr1
      +                          l);
  2572   001E12  5062               	movf	Timer1_Read_Value@l_tmr1l^0,w,c
  2573   001E14  C063  F060         	movff	Timer1_Read_Value@l_tmr1h,??_Timer1_Read_Value
  2574   001E18  6A61               	clrf	(??_Timer1_Read_Value+1)^0,c
  2575   001E1A  C060  F061         	movff	??_Timer1_Read_Value,??_Timer1_Read_Value+1
  2576   001E1E  6A60               	clrf	??_Timer1_Read_Value^0,c
  2577   001E20  2660               	addwf	??_Timer1_Read_Value^0,f,c
  2578   001E22  0E00               	movlw	0
  2579   001E24  2261               	addwfc	(??_Timer1_Read_Value+1)^0,f,c
  2580   001E26  C05E  FFD9         	movff	Timer1_Read_Value@_value,fsr2l
  2581   001E2A  C05F  FFDA         	movff	Timer1_Read_Value@_value+1,fsr2h
  2582   001E2E  C060  FFDE         	movff	??_Timer1_Read_Value,postinc2
  2583   001E32  C061  FFDD         	movff	??_Timer1_Read_Value+1,postdec2
  2584   001E36                     
  2585                           ;MCAL_Layer/Timer1/hal_timer1.c: 164:         ret = (Std_ReturnType)0x01;
  2586   001E36  0E01               	movlw	1
  2587   001E38  6E64               	movwf	Timer1_Read_Value@ret^0,c
  2588   001E3A                     l5281:
  2589                           
  2590                           ;MCAL_Layer/Timer1/hal_timer1.c: 166:     return ret;
  2591   001E3A  5064               	movf	Timer1_Read_Value@ret^0,w,c
  2592   001E3C  0012               	return		;funcret
  2593   001E3E                     __end_of_Timer1_Read_Value:
  2594                           	callstack 0
  2595                           
  2596 ;; *************** function _Timer1_Init *****************
  2597 ;; Defined at:
  2598 ;;		line 40 in file "MCAL_Layer/Timer1/hal_timer1.c"
  2599 ;; Parameters:    Size  Location     Type
  2600 ;;  _timer          2   19[COMRAM] PTR const struct .
  2601 ;;		 -> counter_obj(6), timer1_timer_init@timer_obj(6), 
  2602 ;; Auto vars:     Size  Location     Type
  2603 ;;  ret             1   23[COMRAM] unsigned char 
  2604 ;; Return value:  Size  Location     Type
  2605 ;;                  1    wreg      unsigned char 
  2606 ;; Registers used:
  2607 ;;		wreg, fsr2l, fsr2h, status,2, status,0, cstack
  2608 ;; Tracked objects:
  2609 ;;		On entry : 0/0
  2610 ;;		On exit  : 0/0
  2611 ;;		Unchanged: 0/0
  2612 ;; Data sizes:     COMRAM   BANK0   BANK1   BANK2   BANK3   BANK4   BANK5   BANK6   BANK7   BANK8   BANK9  BANK10  BANK1
      +1  BANK12  BANK13  BANK14  BANK15
  2613 ;;      Params:         2       0       0       0       0       0       0       0       0       0       0       0       
      +0       0       0       0       0
  2614 ;;      Locals:         1       0       0       0       0       0       0       0       0       0       0       0       
      +0       0       0       0       0
  2615 ;;      Temps:          2       0       0       0       0       0       0       0       0       0       0       0       
      +0       0       0       0       0
  2616 ;;      Totals:         5       0       0       0       0       0       0       0       0       0       0       0       
      +0       0       0       0       0
  2617 ;;Total ram usage:        5 bytes
  2618 ;; Hardware stack levels used: 1
  2619 ;; Hardware stack levels required when called: 6
  2620 ;; This function calls:
  2621 ;;		_Timer1_Mode_Selection
  2622 ;; This function is called by:
  2623 ;;		_main
  2624 ;;		_timer1_timer_init
  2625 ;; This function uses a non-reentrant model
  2626 ;;
  2627                           
  2628                           	psect	text15
  2629   001934                     __ptext15:
  2630                           	callstack 0
  2631   001934                     _Timer1_Init:
  2632                           	callstack 24
  2633   001934                     
  2634                           ;MCAL_Layer/Timer1/hal_timer1.c: 43:     if(((void*)0) == _timer)
  2635   001934  505E               	movf	Timer1_Init@_timer^0,w,c
  2636   001936  105F               	iorwf	(Timer1_Init@_timer+1)^0,w,c
  2637   001938  A4D8               	btfss	status,2,c
  2638   00193A  EFA1  F00C         	goto	u3471
  2639   00193E  EFA3  F00C         	goto	u3470
  2640   001942                     u3471:
  2641   001942  EFA7  F00C         	goto	l1292
  2642   001946                     u3470:
  2643   001946                     
  2644                           ;MCAL_Layer/Timer1/hal_timer1.c: 44:     {;MCAL_Layer/Timer1/hal_timer1.c: 45:         r
      +                          et = (Std_ReturnType)0x00;
  2645   001946  0E00               	movlw	0
  2646   001948  6E62               	movwf	Timer1_Init@ret^0,c
  2647                           
  2648                           ;MCAL_Layer/Timer1/hal_timer1.c: 46:     }
  2649   00194A  EFED  F00C         	goto	l5265
  2650   00194E                     l1292:
  2651                           
  2652                           ;MCAL_Layer/Timer1/hal_timer1.c: 48:     {;MCAL_Layer/Timer1/hal_timer1.c: 50:         (
      +                          T1CONbits.TMR1ON = 0);
  2653   00194E  90CD               	bcf	205,0,c	;volatile
  2654   001950                     
  2655                           ;MCAL_Layer/Timer1/hal_timer1.c: 52:         (T1CONbits.T1CKPS = _timer->timer1_prescale
      +                          r_value);
  2656   001950  EE20 F005          	lfsr	2,5
  2657   001954  505E               	movf	Timer1_Init@_timer^0,w,c
  2658   001956  26D9               	addwf	fsr2l,f,c
  2659   001958  505F               	movf	(Timer1_Init@_timer+1)^0,w,c
  2660   00195A  22DA               	addwfc	fsr2h,f,c
  2661   00195C  50DF               	movf	223,w,c
  2662   00195E  0B03               	andlw	3
  2663   001960  6E60               	movwf	??_Timer1_Init^0,c
  2664   001962  3A60               	swapf	??_Timer1_Init^0,f,c
  2665   001964  50CD               	movf	205,w,c	;volatile
  2666   001966  1860               	xorwf	??_Timer1_Init^0,w,c
  2667   001968  0BCF               	andlw	-49
  2668   00196A  1860               	xorwf	??_Timer1_Init^0,w,c
  2669   00196C  6ECD               	movwf	205,c	;volatile
  2670   00196E                     
  2671                           ;MCAL_Layer/Timer1/hal_timer1.c: 54:         Timer1_Mode_Selection(_timer);
  2672   00196E  C05E  F05C         	movff	Timer1_Init@_timer,Timer1_Mode_Selection@_timer
  2673   001972  C05F  F05D         	movff	Timer1_Init@_timer+1,Timer1_Mode_Selection@_timer+1
  2674   001976  EC05  F00E         	call	_Timer1_Mode_Selection	;wreg free
  2675   00197A                     
  2676                           ;MCAL_Layer/Timer1/hal_timer1.c: 56:         TMR1H = (_timer->timer1_preload_value) >> 8
      +                          ;
  2677   00197A  EE20 F003          	lfsr	2,3
  2678   00197E  505E               	movf	Timer1_Init@_timer^0,w,c
  2679   001980  26D9               	addwf	fsr2l,f,c
  2680   001982  505F               	movf	(Timer1_Init@_timer+1)^0,w,c
  2681   001984  22DA               	addwfc	fsr2h,f,c
  2682   001986  CFDE F060          	movff	postinc2,??_Timer1_Init
  2683   00198A  CFDD F061          	movff	postdec2,??_Timer1_Init+1
  2684   00198E  C061  F060         	movff	??_Timer1_Init+1,??_Timer1_Init
  2685   001992  6A61               	clrf	(??_Timer1_Init+1)^0,c
  2686   001994  5060               	movf	??_Timer1_Init^0,w,c
  2687   001996  6ECF               	movwf	207,c	;volatile
  2688   001998                     
  2689                           ;MCAL_Layer/Timer1/hal_timer1.c: 57:         TMR1L = (uint8)(_timer->timer1_preload_valu
      +                          e);
  2690   001998  EE20 F003          	lfsr	2,3
  2691   00199C  505E               	movf	Timer1_Init@_timer^0,w,c
  2692   00199E  26D9               	addwf	fsr2l,f,c
  2693   0019A0  505F               	movf	(Timer1_Init@_timer+1)^0,w,c
  2694   0019A2  22DA               	addwfc	fsr2h,f,c
  2695   0019A4  50DF               	movf	indf2,w,c
  2696   0019A6  6ECE               	movwf	206,c	;volatile
  2697   0019A8                     
  2698                           ;MCAL_Layer/Timer1/hal_timer1.c: 58:         timer1_preload = _timer->timer1_preload_val
      +                          ue;
  2699   0019A8  EE20 F003          	lfsr	2,3
  2700   0019AC  505E               	movf	Timer1_Init@_timer^0,w,c
  2701   0019AE  26D9               	addwf	fsr2l,f,c
  2702   0019B0  505F               	movf	(Timer1_Init@_timer+1)^0,w,c
  2703   0019B2  22DA               	addwfc	fsr2h,f,c
  2704   0019B4  CFDE F011          	movff	postinc2,_timer1_preload
  2705   0019B8  CFDD F012          	movff	postdec2,_timer1_preload+1
  2706   0019BC                     
  2707                           ;MCAL_Layer/Timer1/hal_timer1.c: 61:         (PIE1bits.TMR1IE = 1);
  2708   0019BC  809D               	bsf	157,0,c	;volatile
  2709   0019BE                     
  2710                           ;MCAL_Layer/Timer1/hal_timer1.c: 62:         (PIR1bits.TMR1IF = 0);
  2711   0019BE  909E               	bcf	158,0,c	;volatile
  2712   0019C0                     
  2713                           ;MCAL_Layer/Timer1/hal_timer1.c: 63:         TMR1_InterruptHandler = _timer->TMR1_Interr
      +                          uptHandler;
  2714   0019C0  C05E  FFD9         	movff	Timer1_Init@_timer,fsr2l
  2715   0019C4  C05F  FFDA         	movff	Timer1_Init@_timer+1,fsr2h
  2716   0019C8  CFDE F00F          	movff	postinc2,_TMR1_InterruptHandler
  2717   0019CC  CFDD F010          	movff	postdec2,_TMR1_InterruptHandler+1
  2718   0019D0                     
  2719                           ;MCAL_Layer/Timer1/hal_timer1.c: 79:         (INTCONbits.GIE = 1);
  2720   0019D0  8EF2               	bsf	242,7,c	;volatile
  2721   0019D2                     
  2722                           ;MCAL_Layer/Timer1/hal_timer1.c: 80:         (INTCONbits.PEIE = 1);
  2723   0019D2  8CF2               	bsf	242,6,c	;volatile
  2724   0019D4                     
  2725                           ;MCAL_Layer/Timer1/hal_timer1.c: 84:         (T1CONbits.TMR1ON = 1);
  2726   0019D4  80CD               	bsf	205,0,c	;volatile
  2727   0019D6                     
  2728                           ;MCAL_Layer/Timer1/hal_timer1.c: 85:         ret = (Std_ReturnType)0x01;
  2729   0019D6  0E01               	movlw	1
  2730   0019D8  6E62               	movwf	Timer1_Init@ret^0,c
  2731   0019DA                     l5265:
  2732                           
  2733                           ;MCAL_Layer/Timer1/hal_timer1.c: 87:     return ret;
  2734   0019DA  5062               	movf	Timer1_Init@ret^0,w,c
  2735   0019DC  0012               	return		;funcret
  2736   0019DE                     __end_of_Timer1_Init:
  2737                           	callstack 0
  2738                           
  2739 ;; *************** function _Timer1_Mode_Selection *****************
  2740 ;; Defined at:
  2741 ;;		line 188 in file "MCAL_Layer/Timer1/hal_timer1.c"
  2742 ;; Parameters:    Size  Location     Type
  2743 ;;  _timer          2   17[COMRAM] PTR const struct .
  2744 ;;		 -> counter_obj(6), timer1_timer_init@timer_obj(6), 
  2745 ;; Auto vars:     Size  Location     Type
  2746 ;;		None
  2747 ;; Return value:  Size  Location     Type
  2748 ;;                  1    wreg      void 
  2749 ;; Registers used:
  2750 ;;		wreg, fsr2l, fsr2h, status,2, status,0
  2751 ;; Tracked objects:
  2752 ;;		On entry : 0/0
  2753 ;;		On exit  : 0/0
  2754 ;;		Unchanged: 0/0
  2755 ;; Data sizes:     COMRAM   BANK0   BANK1   BANK2   BANK3   BANK4   BANK5   BANK6   BANK7   BANK8   BANK9  BANK10  BANK1
      +1  BANK12  BANK13  BANK14  BANK15
  2756 ;;      Params:         2       0       0       0       0       0       0       0       0       0       0       0       
      +0       0       0       0       0
  2757 ;;      Locals:         0       0       0       0       0       0       0       0       0       0       0       0       
      +0       0       0       0       0
  2758 ;;      Temps:          0       0       0       0       0       0       0       0       0       0       0       0       
      +0       0       0       0       0
  2759 ;;      Totals:         2       0       0       0       0       0       0       0       0       0       0       0       
      +0       0       0       0       0
  2760 ;;Total ram usage:        2 bytes
  2761 ;; Hardware stack levels used: 1
  2762 ;; Hardware stack levels required when called: 5
  2763 ;; This function calls:
  2764 ;;		Nothing
  2765 ;; This function is called by:
  2766 ;;		_Timer1_Init
  2767 ;; This function uses a non-reentrant model
  2768 ;;
  2769                           
  2770                           	psect	text16
  2771   001C0A                     __ptext16:
  2772                           	callstack 0
  2773   001C0A                     _Timer1_Mode_Selection:
  2774                           	callstack 24
  2775   001C0A                     
  2776                           ;MCAL_Layer/Timer1/hal_timer1.c: 188: static __attribute__((inline)) void Timer1_Mode_Se
      +                          lection(const timer1_t *_timer);MCAL_Layer/Timer1/hal_timer1.c: 189: {;MCAL_Layer/Timer1
      +                          /hal_timer1.c: 190:     if(0 == _timer->timer1_mode)
  2777   001C0A  EE20 F005          	lfsr	2,5
  2778   001C0E  505C               	movf	Timer1_Mode_Selection@_timer^0,w,c
  2779   001C10  26D9               	addwf	fsr2l,f,c
  2780   001C12  505D               	movf	(Timer1_Mode_Selection@_timer+1)^0,w,c
  2781   001C14  22DA               	addwfc	fsr2h,f,c
  2782   001C16  B4DF               	btfsc	indf2,2,c
  2783   001C18  EF10  F00E         	goto	u3351
  2784   001C1C  EF12  F00E         	goto	u3350
  2785   001C20                     u3351:
  2786   001C20  EF15  F00E         	goto	l5151
  2787   001C24                     u3350:
  2788   001C24                     
  2789                           ;MCAL_Layer/Timer1/hal_timer1.c: 191:     {;MCAL_Layer/Timer1/hal_timer1.c: 192:        
      +                           (T1CONbits.TMR1CS = 0);
  2790   001C24  92CD               	bcf	205,1,c	;volatile
  2791                           
  2792                           ;MCAL_Layer/Timer1/hal_timer1.c: 193:     }
  2793   001C26  EF43  F00E         	goto	l1327
  2794   001C2A                     l5151:
  2795   001C2A  EE20 F005          	lfsr	2,5
  2796   001C2E  505C               	movf	Timer1_Mode_Selection@_timer^0,w,c
  2797   001C30  26D9               	addwf	fsr2l,f,c
  2798   001C32  505D               	movf	(Timer1_Mode_Selection@_timer+1)^0,w,c
  2799   001C34  22DA               	addwfc	fsr2h,f,c
  2800   001C36  A4DF               	btfss	indf2,2,c
  2801   001C38  EF20  F00E         	goto	u3361
  2802   001C3C  EF22  F00E         	goto	u3360
  2803   001C40                     u3361:
  2804   001C40  EF43  F00E         	goto	l1327
  2805   001C44                     u3360:
  2806   001C44                     
  2807                           ;MCAL_Layer/Timer1/hal_timer1.c: 195:     {;MCAL_Layer/Timer1/hal_timer1.c: 196:        
      +                           (T1CONbits.TMR1CS = 1);
  2808   001C44  82CD               	bsf	205,1,c	;volatile
  2809   001C46                     
  2810                           ;MCAL_Layer/Timer1/hal_timer1.c: 197:         if(1 == _timer->timer1_counter_mode)
  2811   001C46  EE20 F005          	lfsr	2,5
  2812   001C4A  505C               	movf	Timer1_Mode_Selection@_timer^0,w,c
  2813   001C4C  26D9               	addwf	fsr2l,f,c
  2814   001C4E  505D               	movf	(Timer1_Mode_Selection@_timer+1)^0,w,c
  2815   001C50  22DA               	addwfc	fsr2h,f,c
  2816   001C52  A6DF               	btfss	indf2,3,c
  2817   001C54  EF2E  F00E         	goto	u3371
  2818   001C58  EF30  F00E         	goto	u3370
  2819   001C5C                     u3371:
  2820   001C5C  EF33  F00E         	goto	l5159
  2821   001C60                     u3370:
  2822   001C60                     
  2823                           ;MCAL_Layer/Timer1/hal_timer1.c: 198:         {;MCAL_Layer/Timer1/hal_timer1.c: 199:    
      +                                   (T1CONbits.T1SYNC = 1);
  2824   001C60  84CD               	bsf	205,2,c	;volatile
  2825                           
  2826                           ;MCAL_Layer/Timer1/hal_timer1.c: 200:         }
  2827   001C62  EF43  F00E         	goto	l1327
  2828   001C66                     l5159:
  2829   001C66  EE20 F005          	lfsr	2,5
  2830   001C6A  505C               	movf	Timer1_Mode_Selection@_timer^0,w,c
  2831   001C6C  26D9               	addwf	fsr2l,f,c
  2832   001C6E  505D               	movf	(Timer1_Mode_Selection@_timer+1)^0,w,c
  2833   001C70  22DA               	addwfc	fsr2h,f,c
  2834   001C72  B6DF               	btfsc	indf2,3,c
  2835   001C74  EF3E  F00E         	goto	u3381
  2836   001C78  EF40  F00E         	goto	u3380
  2837   001C7C                     u3381:
  2838   001C7C  EF43  F00E         	goto	l1326
  2839   001C80                     u3380:
  2840   001C80                     
  2841                           ;MCAL_Layer/Timer1/hal_timer1.c: 202:         {;MCAL_Layer/Timer1/hal_timer1.c: 203:    
      +                                   (T1CONbits.T1SYNC = 0);
  2842   001C80  94CD               	bcf	205,2,c	;volatile
  2843                           
  2844                           ;MCAL_Layer/Timer1/hal_timer1.c: 204:         }
  2845   001C82  EF43  F00E         	goto	l1327
  2846   001C86                     l1326:
  2847   001C86                     l1327:
  2848   001C86  0012               	return		;funcret
  2849   001C88                     __end_of_Timer1_Mode_Selection:
  2850                           	callstack 0
  2851                           
  2852 ;; *************** function _InterruptManager *****************
  2853 ;; Defined at:
  2854 ;;		line 46 in file "MCAL_Layer/Interrupt/mcal_interrupt_manager.c"
  2855 ;; Parameters:    Size  Location     Type
  2856 ;;		None
  2857 ;; Auto vars:     Size  Location     Type
  2858 ;;		None
  2859 ;; Return value:  Size  Location     Type
  2860 ;;                  1    wreg      void 
  2861 ;; Registers used:
  2862 ;;		wreg, fsr2l, fsr2h, status,2, status,0, pcl, pclath, pclatu, tosl, prodl, prodh, cstack
  2863 ;; Tracked objects:
  2864 ;;		On entry : 0/0
  2865 ;;		On exit  : 0/0
  2866 ;;		Unchanged: 0/0
  2867 ;; Data sizes:     COMRAM   BANK0   BANK1   BANK2   BANK3   BANK4   BANK5   BANK6   BANK7   BANK8   BANK9  BANK10  BANK1
      +1  BANK12  BANK13  BANK14  BANK15
  2868 ;;      Params:         0       0       0       0       0       0       0       0       0       0       0       0       
      +0       0       0       0       0
  2869 ;;      Locals:         0       0       0       0       0       0       0       0       0       0       0       0       
      +0       0       0       0       0
  2870 ;;      Temps:          6       0       0       0       0       0       0       0       0       0       0       0       
      +0       0       0       0       0
  2871 ;;      Totals:         6       0       0       0       0       0       0       0       0       0       0       0       
      +0       0       0       0       0
  2872 ;;Total ram usage:        6 bytes
  2873 ;; Hardware stack levels used: 1
  2874 ;; Hardware stack levels required when called: 4
  2875 ;; This function calls:
  2876 ;;		_ADC_ISR
  2877 ;;		_CCP1_ISR
  2878 ;;		_CCP2_ISR
  2879 ;;		_INT0_ISR
  2880 ;;		_INT1_ISR
  2881 ;;		_INT2_ISR
  2882 ;;		_MSSP_I2C_BC_ISR
  2883 ;;		_MSSP_I2C_ISR
  2884 ;;		_RB4_ISR
  2885 ;;		_RB5_ISR
  2886 ;;		_RB6_ISR
  2887 ;;		_RB7_ISR
  2888 ;;		_TMR0_ISR
  2889 ;;		_TMR1_ISR
  2890 ;;		_TMR2_ISR
  2891 ;;		_TMR3_ISR
  2892 ;;		_USART_RX_ISR
  2893 ;;		_USART_TX_ISR
  2894 ;; This function is called by:
  2895 ;;		Interrupt level 2
  2896 ;; This function uses a non-reentrant model
  2897 ;;
  2898                           
  2899                           	psect	intcode
  2900   000008                     __pintcode:
  2901                           	callstack 0
  2902   000008                     _InterruptManager:
  2903                           	callstack 20
  2904                           
  2905                           ;incstack = 0
  2906   000008  826E               	bsf	int$flags,1,c	;set compiler interrupt flag (level 2)
  2907   00000A  ED0B  F008         	call	int_func,f	;refresh shadow registers
  2908                           
  2909                           	psect	intcode_body
  2910   001016                     __pintcode_body:
  2911                           	callstack 20
  2912   001016                     int_func:
  2913                           	callstack 20
  2914   001016  0006               	pop		; remove dummy address from shadow register refresh
  2915   001018  CFFA F056          	movff	pclath,??_InterruptManager
  2916   00101C  CFFB F057          	movff	pclatu,??_InterruptManager+1
  2917   001020  CFD9 F058          	movff	fsr2l,??_InterruptManager+2
  2918   001024  CFDA F059          	movff	fsr2h,??_InterruptManager+3
  2919   001028  CFF3 F05A          	movff	prodl,??_InterruptManager+4
  2920   00102C  CFF4 F05B          	movff	prodh,??_InterruptManager+5
  2921   001030                     
  2922                           ;MCAL_Layer/Interrupt/mcal_interrupt_manager.c: 49:     if((1 == INTCONbits.INT0IE) && (
      +                          1 == INTCONbits.INT0IF))
  2923   001030  A8F2               	btfss	242,4,c	;volatile
  2924   001032  EF1D  F008         	goto	i2u425_41
  2925   001036  EF1F  F008         	goto	i2u425_40
  2926   00103A                     i2u425_41:
  2927   00103A  EF28  F008         	goto	i2l1160
  2928   00103E                     i2u425_40:
  2929   00103E  A2F2               	btfss	242,1,c	;volatile
  2930   001040  EF24  F008         	goto	i2u426_41
  2931   001044  EF26  F008         	goto	i2u426_40
  2932   001048                     i2u426_41:
  2933   001048  EF28  F008         	goto	i2l1160
  2934   00104C                     i2u426_40:
  2935   00104C                     
  2936                           ;MCAL_Layer/Interrupt/mcal_interrupt_manager.c: 50:     {;MCAL_Layer/Interrupt/mcal_inte
      +                          rrupt_manager.c: 51:         INT0_ISR();
  2937   00104C  EC55  F010         	call	_INT0_ISR	;wreg free
  2938   001050                     i2l1160:
  2939                           
  2940                           ;MCAL_Layer/Interrupt/mcal_interrupt_manager.c: 54:     if((1 == INTCON3bits.INT1E) && (
      +                          1 == INTCON3bits.INT1F))
  2941   001050  A6F0               	btfss	240,3,c	;volatile
  2942   001052  EF2D  F008         	goto	i2u427_41
  2943   001056  EF2F  F008         	goto	i2u427_40
  2944   00105A                     i2u427_41:
  2945   00105A  EF38  F008         	goto	i2l1162
  2946   00105E                     i2u427_40:
  2947   00105E  A0F0               	btfss	240,0,c	;volatile
  2948   001060  EF34  F008         	goto	i2u428_41
  2949   001064  EF36  F008         	goto	i2u428_40
  2950   001068                     i2u428_41:
  2951   001068  EF38  F008         	goto	i2l1162
  2952   00106C                     i2u428_40:
  2953   00106C                     
  2954                           ;MCAL_Layer/Interrupt/mcal_interrupt_manager.c: 55:     {;MCAL_Layer/Interrupt/mcal_inte
      +                          rrupt_manager.c: 56:         INT1_ISR();
  2955   00106C  EC53  F010         	call	_INT1_ISR	;wreg free
  2956   001070                     i2l1162:
  2957                           
  2958                           ;MCAL_Layer/Interrupt/mcal_interrupt_manager.c: 59:     if((1 == INTCON3bits.INT2IE) && 
      +                          (1 == INTCON3bits.INT2IF))
  2959   001070  A8F0               	btfss	240,4,c	;volatile
  2960   001072  EF3D  F008         	goto	i2u429_41
  2961   001076  EF3F  F008         	goto	i2u429_40
  2962   00107A                     i2u429_41:
  2963   00107A  EF48  F008         	goto	i2l1164
  2964   00107E                     i2u429_40:
  2965   00107E  A2F0               	btfss	240,1,c	;volatile
  2966   001080  EF44  F008         	goto	i2u430_41
  2967   001084  EF46  F008         	goto	i2u430_40
  2968   001088                     i2u430_41:
  2969   001088  EF48  F008         	goto	i2l1164
  2970   00108C                     i2u430_40:
  2971   00108C                     
  2972                           ;MCAL_Layer/Interrupt/mcal_interrupt_manager.c: 60:     {;MCAL_Layer/Interrupt/mcal_inte
      +                          rrupt_manager.c: 61:         INT2_ISR();
  2973   00108C  EC51  F010         	call	_INT2_ISR	;wreg free
  2974   001090                     i2l1164:
  2975                           
  2976                           ;MCAL_Layer/Interrupt/mcal_interrupt_manager.c: 67:     if((1 == INTCONbits.RBIE) && (1 
      +                          == INTCONbits.RBIF) &&
  2977   001090  A6F2               	btfss	242,3,c	;volatile
  2978   001092  EF4D  F008         	goto	i2u431_41
  2979   001096  EF4F  F008         	goto	i2u431_40
  2980   00109A                     i2u431_41:
  2981   00109A  EF6A  F008         	goto	i2l1166
  2982   00109E                     i2u431_40:
  2983   00109E  A0F2               	btfss	242,0,c	;volatile
  2984   0010A0  EF54  F008         	goto	i2u432_41
  2985   0010A4  EF56  F008         	goto	i2u432_40
  2986   0010A8                     i2u432_41:
  2987   0010A8  EF6A  F008         	goto	i2l1166
  2988   0010AC                     i2u432_40:
  2989   0010AC  A881               	btfss	129,4,c	;volatile
  2990   0010AE  EF5B  F008         	goto	i2u433_41
  2991   0010B2  EF5D  F008         	goto	i2u433_40
  2992   0010B6                     i2u433_41:
  2993   0010B6  EF6A  F008         	goto	i2l1166
  2994   0010BA                     i2u433_40:
  2995   0010BA  046C               	decf	_RB4_Flag^0,w,c	;volatile
  2996   0010BC  A4D8               	btfss	status,2,c
  2997   0010BE  EF63  F008         	goto	i2u434_41
  2998   0010C2  EF65  F008         	goto	i2u434_40
  2999   0010C6                     i2u434_41:
  3000   0010C6  EF6A  F008         	goto	i2l1166
  3001   0010CA                     i2u434_40:
  3002   0010CA                     
  3003                           ;MCAL_Layer/Interrupt/mcal_interrupt_manager.c: 69:     {;MCAL_Layer/Interrupt/mcal_inte
      +                          rrupt_manager.c: 70:         RB4_Flag = 0;
  3004   0010CA  0E00               	movlw	0
  3005   0010CC  6E6C               	movwf	_RB4_Flag^0,c	;volatile
  3006   0010CE                     
  3007                           ;MCAL_Layer/Interrupt/mcal_interrupt_manager.c: 71:         RB4_ISR(0);
  3008   0010CE  0E00               	movlw	0
  3009   0010D0  EC28  F010         	call	_RB4_ISR
  3010   0010D4                     i2l1166:
  3011                           
  3012                           ;MCAL_Layer/Interrupt/mcal_interrupt_manager.c: 74:     if((1 == INTCONbits.RBIE) && (1 
      +                          == INTCONbits.RBIF) &&
  3013   0010D4  A6F2               	btfss	242,3,c	;volatile
  3014   0010D6  EF6F  F008         	goto	i2u435_41
  3015   0010DA  EF71  F008         	goto	i2u435_40
  3016   0010DE                     i2u435_41:
  3017   0010DE  EF8C  F008         	goto	i2l1168
  3018   0010E2                     i2u435_40:
  3019   0010E2  A0F2               	btfss	242,0,c	;volatile
  3020   0010E4  EF76  F008         	goto	i2u436_41
  3021   0010E8  EF78  F008         	goto	i2u436_40
  3022   0010EC                     i2u436_41:
  3023   0010EC  EF8C  F008         	goto	i2l1168
  3024   0010F0                     i2u436_40:
  3025   0010F0  B881               	btfsc	129,4,c	;volatile
  3026   0010F2  EF7D  F008         	goto	i2u437_41
  3027   0010F6  EF7F  F008         	goto	i2u437_40
  3028   0010FA                     i2u437_41:
  3029   0010FA  EF8C  F008         	goto	i2l1168
  3030   0010FE                     i2u437_40:
  3031   0010FE  506C               	movf	_RB4_Flag^0,w,c	;volatile
  3032   001100  A4D8               	btfss	status,2,c
  3033   001102  EF85  F008         	goto	i2u438_41
  3034   001106  EF87  F008         	goto	i2u438_40
  3035   00110A                     i2u438_41:
  3036   00110A  EF8C  F008         	goto	i2l1168
  3037   00110E                     i2u438_40:
  3038   00110E                     
  3039                           ;MCAL_Layer/Interrupt/mcal_interrupt_manager.c: 76:     {;MCAL_Layer/Interrupt/mcal_inte
      +                          rrupt_manager.c: 77:         RB4_Flag = 1;
  3040   00110E  0E01               	movlw	1
  3041   001110  6E6C               	movwf	_RB4_Flag^0,c	;volatile
  3042   001112                     
  3043                           ;MCAL_Layer/Interrupt/mcal_interrupt_manager.c: 78:         RB4_ISR(1);
  3044   001112  0E01               	movlw	1
  3045   001114  EC28  F010         	call	_RB4_ISR
  3046   001118                     i2l1168:
  3047                           
  3048                           ;MCAL_Layer/Interrupt/mcal_interrupt_manager.c: 81:     if((1 == INTCONbits.RBIE) && (1 
      +                          == INTCONbits.RBIF) &&
  3049   001118  A6F2               	btfss	242,3,c	;volatile
  3050   00111A  EF91  F008         	goto	i2u439_41
  3051   00111E  EF93  F008         	goto	i2u439_40
  3052   001122                     i2u439_41:
  3053   001122  EFAE  F008         	goto	i2l1170
  3054   001126                     i2u439_40:
  3055   001126  A0F2               	btfss	242,0,c	;volatile
  3056   001128  EF98  F008         	goto	i2u440_41
  3057   00112C  EF9A  F008         	goto	i2u440_40
  3058   001130                     i2u440_41:
  3059   001130  EFAE  F008         	goto	i2l1170
  3060   001134                     i2u440_40:
  3061   001134  AA81               	btfss	129,5,c	;volatile
  3062   001136  EF9F  F008         	goto	i2u441_41
  3063   00113A  EFA1  F008         	goto	i2u441_40
  3064   00113E                     i2u441_41:
  3065   00113E  EFAE  F008         	goto	i2l1170
  3066   001142                     i2u441_40:
  3067   001142  046B               	decf	_RB5_Flag^0,w,c	;volatile
  3068   001144  A4D8               	btfss	status,2,c
  3069   001146  EFA7  F008         	goto	i2u442_41
  3070   00114A  EFA9  F008         	goto	i2u442_40
  3071   00114E                     i2u442_41:
  3072   00114E  EFAE  F008         	goto	i2l1170
  3073   001152                     i2u442_40:
  3074   001152                     
  3075                           ;MCAL_Layer/Interrupt/mcal_interrupt_manager.c: 83:     {;MCAL_Layer/Interrupt/mcal_inte
      +                          rrupt_manager.c: 84:         RB5_Flag = 0;
  3076   001152  0E00               	movlw	0
  3077   001154  6E6B               	movwf	_RB5_Flag^0,c	;volatile
  3078   001156                     
  3079                           ;MCAL_Layer/Interrupt/mcal_interrupt_manager.c: 85:         RB5_ISR(0);
  3080   001156  0E00               	movlw	0
  3081   001158  EC1B  F010         	call	_RB5_ISR
  3082   00115C                     i2l1170:
  3083                           
  3084                           ;MCAL_Layer/Interrupt/mcal_interrupt_manager.c: 88:     if((1 == INTCONbits.RBIE) && (1 
      +                          == INTCONbits.RBIF) &&
  3085   00115C  A6F2               	btfss	242,3,c	;volatile
  3086   00115E  EFB3  F008         	goto	i2u443_41
  3087   001162  EFB5  F008         	goto	i2u443_40
  3088   001166                     i2u443_41:
  3089   001166  EFD0  F008         	goto	i2l1172
  3090   00116A                     i2u443_40:
  3091   00116A  A0F2               	btfss	242,0,c	;volatile
  3092   00116C  EFBA  F008         	goto	i2u444_41
  3093   001170  EFBC  F008         	goto	i2u444_40
  3094   001174                     i2u444_41:
  3095   001174  EFD0  F008         	goto	i2l1172
  3096   001178                     i2u444_40:
  3097   001178  BA81               	btfsc	129,5,c	;volatile
  3098   00117A  EFC1  F008         	goto	i2u445_41
  3099   00117E  EFC3  F008         	goto	i2u445_40
  3100   001182                     i2u445_41:
  3101   001182  EFD0  F008         	goto	i2l1172
  3102   001186                     i2u445_40:
  3103   001186  506B               	movf	_RB5_Flag^0,w,c	;volatile
  3104   001188  A4D8               	btfss	status,2,c
  3105   00118A  EFC9  F008         	goto	i2u446_41
  3106   00118E  EFCB  F008         	goto	i2u446_40
  3107   001192                     i2u446_41:
  3108   001192  EFD0  F008         	goto	i2l1172
  3109   001196                     i2u446_40:
  3110   001196                     
  3111                           ;MCAL_Layer/Interrupt/mcal_interrupt_manager.c: 90:     {;MCAL_Layer/Interrupt/mcal_inte
      +                          rrupt_manager.c: 91:         RB5_Flag = 1;
  3112   001196  0E01               	movlw	1
  3113   001198  6E6B               	movwf	_RB5_Flag^0,c	;volatile
  3114   00119A                     
  3115                           ;MCAL_Layer/Interrupt/mcal_interrupt_manager.c: 92:         RB5_ISR(1);
  3116   00119A  0E01               	movlw	1
  3117   00119C  EC1B  F010         	call	_RB5_ISR
  3118   0011A0                     i2l1172:
  3119                           
  3120                           ;MCAL_Layer/Interrupt/mcal_interrupt_manager.c: 95:     if((1 == INTCONbits.RBIE) && (1 
      +                          == INTCONbits.RBIF) &&
  3121   0011A0  A6F2               	btfss	242,3,c	;volatile
  3122   0011A2  EFD5  F008         	goto	i2u447_41
  3123   0011A6  EFD7  F008         	goto	i2u447_40
  3124   0011AA                     i2u447_41:
  3125   0011AA  EFF2  F008         	goto	i2l1174
  3126   0011AE                     i2u447_40:
  3127   0011AE  A0F2               	btfss	242,0,c	;volatile
  3128   0011B0  EFDC  F008         	goto	i2u448_41
  3129   0011B4  EFDE  F008         	goto	i2u448_40
  3130   0011B8                     i2u448_41:
  3131   0011B8  EFF2  F008         	goto	i2l1174
  3132   0011BC                     i2u448_40:
  3133   0011BC  AC81               	btfss	129,6,c	;volatile
  3134   0011BE  EFE3  F008         	goto	i2u449_41
  3135   0011C2  EFE5  F008         	goto	i2u449_40
  3136   0011C6                     i2u449_41:
  3137   0011C6  EFF2  F008         	goto	i2l1174
  3138   0011CA                     i2u449_40:
  3139   0011CA  046A               	decf	_RB6_Flag^0,w,c	;volatile
  3140   0011CC  A4D8               	btfss	status,2,c
  3141   0011CE  EFEB  F008         	goto	i2u450_41
  3142   0011D2  EFED  F008         	goto	i2u450_40
  3143   0011D6                     i2u450_41:
  3144   0011D6  EFF2  F008         	goto	i2l1174
  3145   0011DA                     i2u450_40:
  3146   0011DA                     
  3147                           ;MCAL_Layer/Interrupt/mcal_interrupt_manager.c: 97:     {;MCAL_Layer/Interrupt/mcal_inte
      +                          rrupt_manager.c: 98:         RB6_Flag = 0;
  3148   0011DA  0E00               	movlw	0
  3149   0011DC  6E6A               	movwf	_RB6_Flag^0,c	;volatile
  3150   0011DE                     
  3151                           ;MCAL_Layer/Interrupt/mcal_interrupt_manager.c: 99:         RB6_ISR(0);
  3152   0011DE  0E00               	movlw	0
  3153   0011E0  EC0E  F010         	call	_RB6_ISR
  3154   0011E4                     i2l1174:
  3155                           
  3156                           ;MCAL_Layer/Interrupt/mcal_interrupt_manager.c: 102:     if((1 == INTCONbits.RBIE) && (1
      +                           == INTCONbits.RBIF) &&
  3157   0011E4  A6F2               	btfss	242,3,c	;volatile
  3158   0011E6  EFF7  F008         	goto	i2u451_41
  3159   0011EA  EFF9  F008         	goto	i2u451_40
  3160   0011EE                     i2u451_41:
  3161   0011EE  EF14  F009         	goto	i2l1176
  3162   0011F2                     i2u451_40:
  3163   0011F2  A0F2               	btfss	242,0,c	;volatile
  3164   0011F4  EFFE  F008         	goto	i2u452_41
  3165   0011F8  EF00  F009         	goto	i2u452_40
  3166   0011FC                     i2u452_41:
  3167   0011FC  EF14  F009         	goto	i2l1176
  3168   001200                     i2u452_40:
  3169   001200  BC81               	btfsc	129,6,c	;volatile
  3170   001202  EF05  F009         	goto	i2u453_41
  3171   001206  EF07  F009         	goto	i2u453_40
  3172   00120A                     i2u453_41:
  3173   00120A  EF14  F009         	goto	i2l1176
  3174   00120E                     i2u453_40:
  3175   00120E  506A               	movf	_RB6_Flag^0,w,c	;volatile
  3176   001210  A4D8               	btfss	status,2,c
  3177   001212  EF0D  F009         	goto	i2u454_41
  3178   001216  EF0F  F009         	goto	i2u454_40
  3179   00121A                     i2u454_41:
  3180   00121A  EF14  F009         	goto	i2l1176
  3181   00121E                     i2u454_40:
  3182   00121E                     
  3183                           ;MCAL_Layer/Interrupt/mcal_interrupt_manager.c: 104:     {;MCAL_Layer/Interrupt/mcal_int
      +                          errupt_manager.c: 105:         RB6_Flag = 1;
  3184   00121E  0E01               	movlw	1
  3185   001220  6E6A               	movwf	_RB6_Flag^0,c	;volatile
  3186   001222                     
  3187                           ;MCAL_Layer/Interrupt/mcal_interrupt_manager.c: 106:         RB6_ISR(1);
  3188   001222  0E01               	movlw	1
  3189   001224  EC0E  F010         	call	_RB6_ISR
  3190   001228                     i2l1176:
  3191                           
  3192                           ;MCAL_Layer/Interrupt/mcal_interrupt_manager.c: 109:     if((1 == INTCONbits.RBIE) && (1
      +                           == INTCONbits.RBIF) &&
  3193   001228  A6F2               	btfss	242,3,c	;volatile
  3194   00122A  EF19  F009         	goto	i2u455_41
  3195   00122E  EF1B  F009         	goto	i2u455_40
  3196   001232                     i2u455_41:
  3197   001232  EF36  F009         	goto	i2l1178
  3198   001236                     i2u455_40:
  3199   001236  A0F2               	btfss	242,0,c	;volatile
  3200   001238  EF20  F009         	goto	i2u456_41
  3201   00123C  EF22  F009         	goto	i2u456_40
  3202   001240                     i2u456_41:
  3203   001240  EF36  F009         	goto	i2l1178
  3204   001244                     i2u456_40:
  3205   001244  AE81               	btfss	129,7,c	;volatile
  3206   001246  EF27  F009         	goto	i2u457_41
  3207   00124A  EF29  F009         	goto	i2u457_40
  3208   00124E                     i2u457_41:
  3209   00124E  EF36  F009         	goto	i2l1178
  3210   001252                     i2u457_40:
  3211   001252  0469               	decf	_RB7_Flag^0,w,c	;volatile
  3212   001254  A4D8               	btfss	status,2,c
  3213   001256  EF2F  F009         	goto	i2u458_41
  3214   00125A  EF31  F009         	goto	i2u458_40
  3215   00125E                     i2u458_41:
  3216   00125E  EF36  F009         	goto	i2l1178
  3217   001262                     i2u458_40:
  3218   001262                     
  3219                           ;MCAL_Layer/Interrupt/mcal_interrupt_manager.c: 111:     {;MCAL_Layer/Interrupt/mcal_int
      +                          errupt_manager.c: 112:         RB7_Flag = 0;
  3220   001262  0E00               	movlw	0
  3221   001264  6E69               	movwf	_RB7_Flag^0,c	;volatile
  3222   001266                     
  3223                           ;MCAL_Layer/Interrupt/mcal_interrupt_manager.c: 113:         RB7_ISR(0);
  3224   001266  0E00               	movlw	0
  3225   001268  EC01  F010         	call	_RB7_ISR
  3226   00126C                     i2l1178:
  3227                           
  3228                           ;MCAL_Layer/Interrupt/mcal_interrupt_manager.c: 116:     if((1 == INTCONbits.RBIE) && (1
      +                           == INTCONbits.RBIF) &&
  3229   00126C  A6F2               	btfss	242,3,c	;volatile
  3230   00126E  EF3B  F009         	goto	i2u459_41
  3231   001272  EF3D  F009         	goto	i2u459_40
  3232   001276                     i2u459_41:
  3233   001276  EF58  F009         	goto	i2l1180
  3234   00127A                     i2u459_40:
  3235   00127A  A0F2               	btfss	242,0,c	;volatile
  3236   00127C  EF42  F009         	goto	i2u460_41
  3237   001280  EF44  F009         	goto	i2u460_40
  3238   001284                     i2u460_41:
  3239   001284  EF58  F009         	goto	i2l1180
  3240   001288                     i2u460_40:
  3241   001288  BE81               	btfsc	129,7,c	;volatile
  3242   00128A  EF49  F009         	goto	i2u461_41
  3243   00128E  EF4B  F009         	goto	i2u461_40
  3244   001292                     i2u461_41:
  3245   001292  EF58  F009         	goto	i2l1180
  3246   001296                     i2u461_40:
  3247   001296  5069               	movf	_RB7_Flag^0,w,c	;volatile
  3248   001298  A4D8               	btfss	status,2,c
  3249   00129A  EF51  F009         	goto	i2u462_41
  3250   00129E  EF53  F009         	goto	i2u462_40
  3251   0012A2                     i2u462_41:
  3252   0012A2  EF58  F009         	goto	i2l1180
  3253   0012A6                     i2u462_40:
  3254   0012A6                     
  3255                           ;MCAL_Layer/Interrupt/mcal_interrupt_manager.c: 118:     {;MCAL_Layer/Interrupt/mcal_int
      +                          errupt_manager.c: 119:         RB7_Flag = 1;
  3256   0012A6  0E01               	movlw	1
  3257   0012A8  6E69               	movwf	_RB7_Flag^0,c	;volatile
  3258   0012AA                     
  3259                           ;MCAL_Layer/Interrupt/mcal_interrupt_manager.c: 120:         RB7_ISR(1);
  3260   0012AA  0E01               	movlw	1
  3261   0012AC  EC01  F010         	call	_RB7_ISR
  3262   0012B0                     i2l1180:
  3263                           
  3264                           ;MCAL_Layer/Interrupt/mcal_interrupt_manager.c: 126:     if((1 == PIE1bits.ADIE) && (1 =
      +                          = PIR1bits.ADIF))
  3265   0012B0  AC9D               	btfss	157,6,c	;volatile
  3266   0012B2  EF5D  F009         	goto	i2u463_41
  3267   0012B6  EF5F  F009         	goto	i2u463_40
  3268   0012BA                     i2u463_41:
  3269   0012BA  EF68  F009         	goto	i2l1182
  3270   0012BE                     i2u463_40:
  3271   0012BE  AC9E               	btfss	158,6,c	;volatile
  3272   0012C0  EF64  F009         	goto	i2u464_41
  3273   0012C4  EF66  F009         	goto	i2u464_40
  3274   0012C8                     i2u464_41:
  3275   0012C8  EF68  F009         	goto	i2l1182
  3276   0012CC                     i2u464_40:
  3277   0012CC                     
  3278                           ;MCAL_Layer/Interrupt/mcal_interrupt_manager.c: 127:     {;MCAL_Layer/Interrupt/mcal_int
      +                          errupt_manager.c: 128:         ADC_ISR();
  3279   0012CC  EC5B  F010         	call	_ADC_ISR	;wreg free
  3280   0012D0                     i2l1182:
  3281                           
  3282                           ;MCAL_Layer/Interrupt/mcal_interrupt_manager.c: 134:     if((1 == INTCONbits.TMR0IE) && 
      +                          (1 == INTCONbits.TMR0IF))
  3283   0012D0  AAF2               	btfss	242,5,c	;volatile
  3284   0012D2  EF6D  F009         	goto	i2u465_41
  3285   0012D6  EF6F  F009         	goto	i2u465_40
  3286   0012DA                     i2u465_41:
  3287   0012DA  EF78  F009         	goto	i2l1184
  3288   0012DE                     i2u465_40:
  3289   0012DE  A4F2               	btfss	242,2,c	;volatile
  3290   0012E0  EF74  F009         	goto	i2u466_41
  3291   0012E4  EF76  F009         	goto	i2u466_40
  3292   0012E8                     i2u466_41:
  3293   0012E8  EF78  F009         	goto	i2l1184
  3294   0012EC                     i2u466_40:
  3295   0012EC                     
  3296                           ;MCAL_Layer/Interrupt/mcal_interrupt_manager.c: 135:     {;MCAL_Layer/Interrupt/mcal_int
      +                          errupt_manager.c: 136:         TMR0_ISR();
  3297   0012EC  EC3B  F010         	call	_TMR0_ISR	;wreg free
  3298   0012F0                     i2l1184:
  3299                           
  3300                           ;MCAL_Layer/Interrupt/mcal_interrupt_manager.c: 139:     if((1 == PIE1bits.TMR1IE) && (1
      +                           == PIR1bits.TMR1IF))
  3301   0012F0  A09D               	btfss	157,0,c	;volatile
  3302   0012F2  EF7D  F009         	goto	i2u467_41
  3303   0012F6  EF7F  F009         	goto	i2u467_40
  3304   0012FA                     i2u467_41:
  3305   0012FA  EF88  F009         	goto	i2l1186
  3306   0012FE                     i2u467_40:
  3307   0012FE  A09E               	btfss	158,0,c	;volatile
  3308   001300  EF84  F009         	goto	i2u468_41
  3309   001304  EF86  F009         	goto	i2u468_40
  3310   001308                     i2u468_41:
  3311   001308  EF88  F009         	goto	i2l1186
  3312   00130C                     i2u468_40:
  3313   00130C                     
  3314                           ;MCAL_Layer/Interrupt/mcal_interrupt_manager.c: 140:     {;MCAL_Layer/Interrupt/mcal_int
      +                          errupt_manager.c: 141:         TMR1_ISR();
  3315   00130C  ECB2  F00F         	call	_TMR1_ISR	;wreg free
  3316   001310                     i2l1186:
  3317                           
  3318                           ;MCAL_Layer/Interrupt/mcal_interrupt_manager.c: 144:     if((1 == PIE1bits.TMR2IE) && (1
      +                           == PIR1bits.TMR2IF))
  3319   001310  A29D               	btfss	157,1,c	;volatile
  3320   001312  EF8D  F009         	goto	i2u469_41
  3321   001316  EF8F  F009         	goto	i2u469_40
  3322   00131A                     i2u469_41:
  3323   00131A  EF98  F009         	goto	i2l1188
  3324   00131E                     i2u469_40:
  3325   00131E  A29E               	btfss	158,1,c	;volatile
  3326   001320  EF94  F009         	goto	i2u470_41
  3327   001324  EF96  F009         	goto	i2u470_40
  3328   001328                     i2u470_41:
  3329   001328  EF98  F009         	goto	i2l1188
  3330   00132C                     i2u470_40:
  3331   00132C                     
  3332                           ;MCAL_Layer/Interrupt/mcal_interrupt_manager.c: 145:     {;MCAL_Layer/Interrupt/mcal_int
      +                          errupt_manager.c: 146:         TMR2_ISR();
  3333   00132C  EC41  F010         	call	_TMR2_ISR	;wreg free
  3334   001330                     i2l1188:
  3335                           
  3336                           ;MCAL_Layer/Interrupt/mcal_interrupt_manager.c: 149:     if((1 == PIE2bits.TMR3IE) && (1
      +                           == PIR2bits.TMR3IF))
  3337   001330  A2A0               	btfss	160,1,c	;volatile
  3338   001332  EF9D  F009         	goto	i2u471_41
  3339   001336  EF9F  F009         	goto	i2u471_40
  3340   00133A                     i2u471_41:
  3341   00133A  EFA8  F009         	goto	i2l1190
  3342   00133E                     i2u471_40:
  3343   00133E  A2A1               	btfss	161,1,c	;volatile
  3344   001340  EFA4  F009         	goto	i2u472_41
  3345   001344  EFA6  F009         	goto	i2u472_40
  3346   001348                     i2u472_41:
  3347   001348  EFA8  F009         	goto	i2l1190
  3348   00134C                     i2u472_40:
  3349   00134C                     
  3350                           ;MCAL_Layer/Interrupt/mcal_interrupt_manager.c: 150:     {;MCAL_Layer/Interrupt/mcal_int
      +                          errupt_manager.c: 151:         TMR3_ISR();
  3351   00134C  EC35  F010         	call	_TMR3_ISR	;wreg free
  3352   001350                     i2l1190:
  3353                           
  3354                           ;MCAL_Layer/Interrupt/mcal_interrupt_manager.c: 157:     if((1 == PIE1bits.TXIE) && (1 =
      +                          = PIR1bits.TXIF))
  3355   001350  A89D               	btfss	157,4,c	;volatile
  3356   001352  EFAD  F009         	goto	i2u473_41
  3357   001356  EFAF  F009         	goto	i2u473_40
  3358   00135A                     i2u473_41:
  3359   00135A  EFB8  F009         	goto	i2l1192
  3360   00135E                     i2u473_40:
  3361   00135E  A89E               	btfss	158,4,c	;volatile
  3362   001360  EFB4  F009         	goto	i2u474_41
  3363   001364  EFB6  F009         	goto	i2u474_40
  3364   001368                     i2u474_41:
  3365   001368  EFB8  F009         	goto	i2l1192
  3366   00136C                     i2u474_40:
  3367   00136C                     
  3368                           ;MCAL_Layer/Interrupt/mcal_interrupt_manager.c: 158:     {;MCAL_Layer/Interrupt/mcal_int
      +                          errupt_manager.c: 159:         USART_TX_ISR();
  3369   00136C  EC4B  F010         	call	_USART_TX_ISR	;wreg free
  3370   001370                     i2l1192:
  3371                           
  3372                           ;MCAL_Layer/Interrupt/mcal_interrupt_manager.c: 162:     if((1 == PIE1bits.RCIE) && (1 =
      +                          = PIR1bits.RCIF))
  3373   001370  AA9D               	btfss	157,5,c	;volatile
  3374   001372  EFBD  F009         	goto	i2u475_41
  3375   001376  EFBF  F009         	goto	i2u475_40
  3376   00137A                     i2u475_41:
  3377   00137A  EFC8  F009         	goto	i2l1194
  3378   00137E                     i2u475_40:
  3379   00137E  AA9E               	btfss	158,5,c	;volatile
  3380   001380  EFC4  F009         	goto	i2u476_41
  3381   001384  EFC6  F009         	goto	i2u476_40
  3382   001388                     i2u476_41:
  3383   001388  EFC8  F009         	goto	i2l1194
  3384   00138C                     i2u476_40:
  3385   00138C                     
  3386                           ;MCAL_Layer/Interrupt/mcal_interrupt_manager.c: 163:     {;MCAL_Layer/Interrupt/mcal_int
      +                          errupt_manager.c: 164:         USART_RX_ISR();
  3387   00138C  EC5D  F010         	call	_USART_RX_ISR	;wreg free
  3388   001390                     i2l1194:
  3389                           
  3390                           ;MCAL_Layer/Interrupt/mcal_interrupt_manager.c: 170:     if((1 == PIE1bits.SSPIE) && (1 
      +                          == PIR1bits.SSPIF))
  3391   001390  A69D               	btfss	157,3,c	;volatile
  3392   001392  EFCD  F009         	goto	i2u477_41
  3393   001396  EFCF  F009         	goto	i2u477_40
  3394   00139A                     i2u477_41:
  3395   00139A  EFD8  F009         	goto	i2l1196
  3396   00139E                     i2u477_40:
  3397   00139E  A69E               	btfss	158,3,c	;volatile
  3398   0013A0  EFD4  F009         	goto	i2u478_41
  3399   0013A4  EFD6  F009         	goto	i2u478_40
  3400   0013A8                     i2u478_41:
  3401   0013A8  EFD8  F009         	goto	i2l1196
  3402   0013AC                     i2u478_40:
  3403   0013AC                     
  3404                           ;MCAL_Layer/Interrupt/mcal_interrupt_manager.c: 171:     {;MCAL_Layer/Interrupt/mcal_int
      +                          errupt_manager.c: 172:         MSSP_I2C_ISR();
  3405   0013AC  EC4D  F010         	call	_MSSP_I2C_ISR	;wreg free
  3406   0013B0                     i2l1196:
  3407                           
  3408                           ;MCAL_Layer/Interrupt/mcal_interrupt_manager.c: 175:     if((1 == PIE2bits.BCLIE) && (1 
      +                          == PIR2bits.BCLIF))
  3409   0013B0  A6A0               	btfss	160,3,c	;volatile
  3410   0013B2  EFDD  F009         	goto	i2u479_41
  3411   0013B6  EFDF  F009         	goto	i2u479_40
  3412   0013BA                     i2u479_41:
  3413   0013BA  EFE8  F009         	goto	i2l1198
  3414   0013BE                     i2u479_40:
  3415   0013BE  A6A1               	btfss	161,3,c	;volatile
  3416   0013C0  EFE4  F009         	goto	i2u480_41
  3417   0013C4  EFE6  F009         	goto	i2u480_40
  3418   0013C8                     i2u480_41:
  3419   0013C8  EFE8  F009         	goto	i2l1198
  3420   0013CC                     i2u480_40:
  3421   0013CC                     
  3422                           ;MCAL_Layer/Interrupt/mcal_interrupt_manager.c: 176:     {;MCAL_Layer/Interrupt/mcal_int
      +                          errupt_manager.c: 177:         MSSP_I2C_BC_ISR();
  3423   0013CC  EC4F  F010         	call	_MSSP_I2C_BC_ISR	;wreg free
  3424   0013D0                     i2l1198:
  3425                           
  3426                           ;MCAL_Layer/Interrupt/mcal_interrupt_manager.c: 183:     if((1 == PIE1bits.CCP1IE) && (1
      +                           == PIR1bits.CCP1IF))
  3427   0013D0  A49D               	btfss	157,2,c	;volatile
  3428   0013D2  EFED  F009         	goto	i2u481_41
  3429   0013D6  EFEF  F009         	goto	i2u481_40
  3430   0013DA                     i2u481_41:
  3431   0013DA  EFF8  F009         	goto	i2l1200
  3432   0013DE                     i2u481_40:
  3433   0013DE  A49E               	btfss	158,2,c	;volatile
  3434   0013E0  EFF4  F009         	goto	i2u482_41
  3435   0013E4  EFF6  F009         	goto	i2u482_40
  3436   0013E8                     i2u482_41:
  3437   0013E8  EFF8  F009         	goto	i2l1200
  3438   0013EC                     i2u482_40:
  3439   0013EC                     
  3440                           ;MCAL_Layer/Interrupt/mcal_interrupt_manager.c: 184:     {;MCAL_Layer/Interrupt/mcal_int
      +                          errupt_manager.c: 185:         CCP1_ISR();
  3441   0013EC  EC59  F010         	call	_CCP1_ISR	;wreg free
  3442   0013F0                     i2l1200:
  3443                           
  3444                           ;MCAL_Layer/Interrupt/mcal_interrupt_manager.c: 188:     if((1 == PIE2bits.CCP2IE) && (1
      +                           == PIR2bits.CCP2IF))
  3445   0013F0  A0A0               	btfss	160,0,c	;volatile
  3446   0013F2  EFFD  F009         	goto	i2u483_41
  3447   0013F6  EFFF  F009         	goto	i2u483_40
  3448   0013FA                     i2u483_41:
  3449   0013FA  EF08  F00A         	goto	i2l1203
  3450   0013FE                     i2u483_40:
  3451   0013FE  A0A1               	btfss	161,0,c	;volatile
  3452   001400  EF04  F00A         	goto	i2u484_41
  3453   001404  EF06  F00A         	goto	i2u484_40
  3454   001408                     i2u484_41:
  3455   001408  EF08  F00A         	goto	i2l1203
  3456   00140C                     i2u484_40:
  3457   00140C                     
  3458                           ;MCAL_Layer/Interrupt/mcal_interrupt_manager.c: 189:     {;MCAL_Layer/Interrupt/mcal_int
      +                          errupt_manager.c: 190:         CCP2_ISR();
  3459   00140C  EC57  F010         	call	_CCP2_ISR	;wreg free
  3460   001410                     i2l1203:
  3461   001410  C05B  FFF4         	movff	??_InterruptManager+5,prodh
  3462   001414  C05A  FFF3         	movff	??_InterruptManager+4,prodl
  3463   001418  C059  FFDA         	movff	??_InterruptManager+3,fsr2h
  3464   00141C  C058  FFD9         	movff	??_InterruptManager+2,fsr2l
  3465   001420  C057  FFFB         	movff	??_InterruptManager+1,pclatu
  3466   001424  C056  FFFA         	movff	??_InterruptManager,pclath
  3467   001428  926E               	bcf	int$flags,1,c	;clear compiler interrupt flag (level 2)
  3468   00142A  0011               	retfie		f
  3469   00142C                     __end_of_InterruptManager:
  3470                           	callstack 0
  3471                           
  3472 ;; *************** function _USART_TX_ISR *****************
  3473 ;; Defined at:
  3474 ;;		line 409 in file "MCAL_Layer/USART/hal_usart.c"
  3475 ;; Parameters:    Size  Location     Type
  3476 ;;		None
  3477 ;; Auto vars:     Size  Location     Type
  3478 ;;		None
  3479 ;; Return value:  Size  Location     Type
  3480 ;;                  1    wreg      void 
  3481 ;; Registers used:
  3482 ;;		None
  3483 ;; Tracked objects:
  3484 ;;		On entry : 0/0
  3485 ;;		On exit  : 0/0
  3486 ;;		Unchanged: 0/0
  3487 ;; Data sizes:     COMRAM   BANK0   BANK1   BANK2   BANK3   BANK4   BANK5   BANK6   BANK7   BANK8   BANK9  BANK10  BANK1
      +1  BANK12  BANK13  BANK14  BANK15
  3488 ;;      Params:         0       0       0       0       0       0       0       0       0       0       0       0       
      +0       0       0       0       0
  3489 ;;      Locals:         0       0       0       0       0       0       0       0       0       0       0       0       
      +0       0       0       0       0
  3490 ;;      Temps:          0       0       0       0       0       0       0       0       0       0       0       0       
      +0       0       0       0       0
  3491 ;;      Totals:         0       0       0       0       0       0       0       0       0       0       0       0       
      +0       0       0       0       0
  3492 ;;Total ram usage:        0 bytes
  3493 ;; Hardware stack levels used: 1
  3494 ;; This function calls:
  3495 ;;		Nothing
  3496 ;; This function is called by:
  3497 ;;		_InterruptManager
  3498 ;; This function uses a non-reentrant model
  3499 ;;
  3500                           
  3501                           	psect	text18
  3502   002096                     __ptext18:
  3503                           	callstack 0
  3504   002096                     _USART_TX_ISR:
  3505                           	callstack 23
  3506   002096                     
  3507                           ;MCAL_Layer/USART/hal_usart.c: 412:     (PIE1bits.TXIE = 0);
  3508   002096  989D               	bcf	157,4,c	;volatile
  3509   002098  0012               	return		;funcret
  3510   00209A                     __end_of_USART_TX_ISR:
  3511                           	callstack 0
  3512                           
  3513 ;; *************** function _USART_RX_ISR *****************
  3514 ;; Defined at:
  3515 ;;		line 423 in file "MCAL_Layer/USART/hal_usart.c"
  3516 ;; Parameters:    Size  Location     Type
  3517 ;;		None
  3518 ;; Auto vars:     Size  Location     Type
  3519 ;;		None
  3520 ;; Return value:  Size  Location     Type
  3521 ;;                  1    wreg      void 
  3522 ;; Registers used:
  3523 ;;		wreg, status,2, status,0
  3524 ;; Tracked objects:
  3525 ;;		On entry : 0/0
  3526 ;;		On exit  : 0/0
  3527 ;;		Unchanged: 0/0
  3528 ;; Data sizes:     COMRAM   BANK0   BANK1   BANK2   BANK3   BANK4   BANK5   BANK6   BANK7   BANK8   BANK9  BANK10  BANK1
      +1  BANK12  BANK13  BANK14  BANK15
  3529 ;;      Params:         0       0       0       0       0       0       0       0       0       0       0       0       
      +0       0       0       0       0
  3530 ;;      Locals:         0       0       0       0       0       0       0       0       0       0       0       0       
      +0       0       0       0       0
  3531 ;;      Temps:          0       0       0       0       0       0       0       0       0       0       0       0       
      +0       0       0       0       0
  3532 ;;      Totals:         0       0       0       0       0       0       0       0       0       0       0       0       
      +0       0       0       0       0
  3533 ;;Total ram usage:        0 bytes
  3534 ;; Hardware stack levels used: 1
  3535 ;; This function calls:
  3536 ;;		Nothing
  3537 ;; This function is called by:
  3538 ;;		_InterruptManager
  3539 ;; This function uses a non-reentrant model
  3540 ;;
  3541                           
  3542                           	psect	text19
  3543   0020BA                     __ptext19:
  3544                           	callstack 0
  3545   0020BA                     _USART_RX_ISR:
  3546                           	callstack 23
  3547   0020BA  0012               	return		;funcret
  3548   0020BC                     __end_of_USART_RX_ISR:
  3549                           	callstack 0
  3550                           
  3551 ;; *************** function _TMR3_ISR *****************
  3552 ;; Defined at:
  3553 ;;		line 172 in file "MCAL_Layer/Timer3/hal_timer3.c"
  3554 ;; Parameters:    Size  Location     Type
  3555 ;;		None
  3556 ;; Auto vars:     Size  Location     Type
  3557 ;;		None
  3558 ;; Return value:  Size  Location     Type
  3559 ;;                  1    wreg      void 
  3560 ;; Registers used:
  3561 ;;		wreg, status,2
  3562 ;; Tracked objects:
  3563 ;;		On entry : 0/0
  3564 ;;		On exit  : 0/0
  3565 ;;		Unchanged: 0/0
  3566 ;; Data sizes:     COMRAM   BANK0   BANK1   BANK2   BANK3   BANK4   BANK5   BANK6   BANK7   BANK8   BANK9  BANK10  BANK1
      +1  BANK12  BANK13  BANK14  BANK15
  3567 ;;      Params:         0       0       0       0       0       0       0       0       0       0       0       0       
      +0       0       0       0       0
  3568 ;;      Locals:         0       0       0       0       0       0       0       0       0       0       0       0       
      +0       0       0       0       0
  3569 ;;      Temps:          0       0       0       0       0       0       0       0       0       0       0       0       
      +0       0       0       0       0
  3570 ;;      Totals:         0       0       0       0       0       0       0       0       0       0       0       0       
      +0       0       0       0       0
  3571 ;;Total ram usage:        0 bytes
  3572 ;; Hardware stack levels used: 1
  3573 ;; This function calls:
  3574 ;;		Nothing
  3575 ;; This function is called by:
  3576 ;;		_InterruptManager
  3577 ;; This function uses a non-reentrant model
  3578 ;;
  3579                           
  3580                           	psect	text20
  3581   00206A                     __ptext20:
  3582                           	callstack 0
  3583   00206A                     _TMR3_ISR:
  3584                           	callstack 23
  3585   00206A                     
  3586                           ;MCAL_Layer/Timer3/hal_timer3.c: 174:     (PIR2bits.TMR3IF = 0);
  3587   00206A  92A1               	bcf	161,1,c	;volatile
  3588   00206C                     
  3589                           ;MCAL_Layer/Timer3/hal_timer3.c: 175:     TMR3H = (timer3_preload) >> 8;
  3590   00206C  500C               	movf	(_timer3_preload+1)^0,w,c
  3591   00206E  6EB3               	movwf	179,c	;volatile
  3592   002070                     
  3593                           ;MCAL_Layer/Timer3/hal_timer3.c: 176:     TMR3L = (uint8)(timer3_preload);
  3594   002070  C00B  FFB2         	movff	_timer3_preload,4018	;volatile
  3595   002074  0012               	return		;funcret
  3596   002076                     __end_of_TMR3_ISR:
  3597                           	callstack 0
  3598                           
  3599 ;; *************** function _TMR2_ISR *****************
  3600 ;; Defined at:
  3601 ;;		line 162 in file "MCAL_Layer/Timer2/hal_timer2.c"
  3602 ;; Parameters:    Size  Location     Type
  3603 ;;		None
  3604 ;; Auto vars:     Size  Location     Type
  3605 ;;		None
  3606 ;; Return value:  Size  Location     Type
  3607 ;;                  1    wreg      void 
  3608 ;; Registers used:
  3609 ;;		None
  3610 ;; Tracked objects:
  3611 ;;		On entry : 0/0
  3612 ;;		On exit  : 0/0
  3613 ;;		Unchanged: 0/0
  3614 ;; Data sizes:     COMRAM   BANK0   BANK1   BANK2   BANK3   BANK4   BANK5   BANK6   BANK7   BANK8   BANK9  BANK10  BANK1
      +1  BANK12  BANK13  BANK14  BANK15
  3615 ;;      Params:         0       0       0       0       0       0       0       0       0       0       0       0       
      +0       0       0       0       0
  3616 ;;      Locals:         0       0       0       0       0       0       0       0       0       0       0       0       
      +0       0       0       0       0
  3617 ;;      Temps:          0       0       0       0       0       0       0       0       0       0       0       0       
      +0       0       0       0       0
  3618 ;;      Totals:         0       0       0       0       0       0       0       0       0       0       0       0       
      +0       0       0       0       0
  3619 ;;Total ram usage:        0 bytes
  3620 ;; Hardware stack levels used: 1
  3621 ;; This function calls:
  3622 ;;		Nothing
  3623 ;; This function is called by:
  3624 ;;		_InterruptManager
  3625 ;; This function uses a non-reentrant model
  3626 ;;
  3627                           
  3628                           	psect	text21
  3629   002082                     __ptext21:
  3630                           	callstack 0
  3631   002082                     _TMR2_ISR:
  3632                           	callstack 23
  3633   002082                     
  3634                           ;MCAL_Layer/Timer2/hal_timer2.c: 164:     (PIR1bits.TMR2IF = 0);
  3635   002082  929E               	bcf	158,1,c	;volatile
  3636                           
  3637                           ;MCAL_Layer/Timer2/hal_timer2.c: 165:     TMR2 = timer2_preload;
  3638   002084  C03B  FFCC         	movff	_timer2_preload,4044	;volatile
  3639   002088  0012               	return		;funcret
  3640   00208A                     __end_of_TMR2_ISR:
  3641                           	callstack 0
  3642                           
  3643 ;; *************** function _TMR1_ISR *****************
  3644 ;; Defined at:
  3645 ;;		line 172 in file "MCAL_Layer/Timer1/hal_timer1.c"
  3646 ;; Parameters:    Size  Location     Type
  3647 ;;		None
  3648 ;; Auto vars:     Size  Location     Type
  3649 ;;		None
  3650 ;; Return value:  Size  Location     Type
  3651 ;;                  1    wreg      void 
  3652 ;; Registers used:
  3653 ;;		wreg, fsr2l, fsr2h, status,2, status,0, pcl, pclath, pclatu, tosl, prodl, prodh, cstack
  3654 ;; Tracked objects:
  3655 ;;		On entry : 0/0
  3656 ;;		On exit  : 0/0
  3657 ;;		Unchanged: 0/0
  3658 ;; Data sizes:     COMRAM   BANK0   BANK1   BANK2   BANK3   BANK4   BANK5   BANK6   BANK7   BANK8   BANK9  BANK10  BANK1
      +1  BANK12  BANK13  BANK14  BANK15
  3659 ;;      Params:         0       0       0       0       0       0       0       0       0       0       0       0       
      +0       0       0       0       0
  3660 ;;      Locals:         0       0       0       0       0       0       0       0       0       0       0       0       
      +0       0       0       0       0
  3661 ;;      Temps:          0       0       0       0       0       0       0       0       0       0       0       0       
      +0       0       0       0       0
  3662 ;;      Totals:         0       0       0       0       0       0       0       0       0       0       0       0       
      +0       0       0       0       0
  3663 ;;Total ram usage:        0 bytes
  3664 ;; Hardware stack levels used: 1
  3665 ;; Hardware stack levels required when called: 3
  3666 ;; This function calls:
  3667 ;;		NULL
  3668 ;;		_Timer1_DefaultInterruptHandler
  3669 ;; This function is called by:
  3670 ;;		_InterruptManager
  3671 ;; This function uses a non-reentrant model
  3672 ;;
  3673                           
  3674                           	psect	text22
  3675   001F64                     __ptext22:
  3676                           	callstack 0
  3677   001F64                     _TMR1_ISR:
  3678                           	callstack 20
  3679   001F64                     
  3680                           ;MCAL_Layer/Timer1/hal_timer1.c: 174:     (PIR1bits.TMR1IF = 0);
  3681   001F64  909E               	bcf	158,0,c	;volatile
  3682   001F66                     
  3683                           ;MCAL_Layer/Timer1/hal_timer1.c: 175:     TMR1H = (timer1_preload) >> 8;
  3684   001F66  5012               	movf	(_timer1_preload+1)^0,w,c
  3685   001F68  6ECF               	movwf	207,c	;volatile
  3686   001F6A                     
  3687                           ;MCAL_Layer/Timer1/hal_timer1.c: 176:     TMR1L = (uint8)(timer1_preload);
  3688   001F6A  C011  FFCE         	movff	_timer1_preload,4046	;volatile
  3689   001F6E                     
  3690                           ;MCAL_Layer/Timer1/hal_timer1.c: 177:     if(TMR1_InterruptHandler)
  3691   001F6E  500F               	movf	_TMR1_InterruptHandler^0,w,c
  3692   001F70  1010               	iorwf	(_TMR1_InterruptHandler+1)^0,w,c
  3693   001F72  B4D8               	btfsc	status,2,c
  3694   001F74  EFBE  F00F         	goto	i2u345_41
  3695   001F78  EFC0  F00F         	goto	i2u345_40
  3696   001F7C                     i2u345_41:
  3697   001F7C  EFCC  F00F         	goto	i2l1316
  3698   001F80                     i2u345_40:
  3699   001F80                     
  3700                           ;MCAL_Layer/Timer1/hal_timer1.c: 178:     {;MCAL_Layer/Timer1/hal_timer1.c: 179:        
      +                           TMR1_InterruptHandler();
  3701   001F80  D802               	call	i2u346_48
  3702   001F82  EFCC  F00F         	goto	i2u346_49
  3703   001F86                     i2u346_48:
  3704   001F86  0005               	push	
  3705   001F88  6EFA               	movwf	pclath,c
  3706   001F8A  500F               	movf	_TMR1_InterruptHandler^0,w,c
  3707   001F8C  6EFD               	movwf	tosl,c
  3708   001F8E  5010               	movf	(_TMR1_InterruptHandler+1)^0,w,c
  3709   001F90  6EFE               	movwf	tosh,c
  3710   001F92  6AFF               	clrf	tosu,c
  3711   001F94  50FA               	movf	pclath,w,c
  3712   001F96  0012               	return		;indir
  3713   001F98                     i2u346_49:
  3714   001F98                     i2l1316:
  3715   001F98  0012               	return		;funcret
  3716   001F9A                     __end_of_TMR1_ISR:
  3717                           	callstack 0
  3718                           
  3719 ;; *************** function _Timer1_DefaultInterruptHandler *****************
  3720 ;; Defined at:
  3721 ;;		line 22 in file "application.c"
  3722 ;; Parameters:    Size  Location     Type
  3723 ;;		None
  3724 ;; Auto vars:     Size  Location     Type
  3725 ;;		None
  3726 ;; Return value:  Size  Location     Type
  3727 ;;                  1    wreg      void 
  3728 ;; Registers used:
  3729 ;;		wreg, fsr2l, fsr2h, status,2, status,0, prodl, prodh, cstack
  3730 ;; Tracked objects:
  3731 ;;		On entry : 0/0
  3732 ;;		On exit  : 0/0
  3733 ;;		Unchanged: 0/0
  3734 ;; Data sizes:     COMRAM   BANK0   BANK1   BANK2   BANK3   BANK4   BANK5   BANK6   BANK7   BANK8   BANK9  BANK10  BANK1
      +1  BANK12  BANK13  BANK14  BANK15
  3735 ;;      Params:         0       0       0       0       0       0       0       0       0       0       0       0       
      +0       0       0       0       0
  3736 ;;      Locals:         0       0       0       0       0       0       0       0       0       0       0       0       
      +0       0       0       0       0
  3737 ;;      Temps:          0       0       0       0       0       0       0       0       0       0       0       0       
      +0       0       0       0       0
  3738 ;;      Totals:         0       0       0       0       0       0       0       0       0       0       0       0       
      +0       0       0       0       0
  3739 ;;Total ram usage:        0 bytes
  3740 ;; Hardware stack levels used: 1
  3741 ;; Hardware stack levels required when called: 2
  3742 ;; This function calls:
  3743 ;;		_led_turn_toggle
  3744 ;; This function is called by:
  3745 ;;		_timer1_timer_init
  3746 ;;		_TMR1_ISR
  3747 ;; This function uses a non-reentrant model
  3748 ;;
  3749                           
  3750                           	psect	text23
  3751   001FE6                     __ptext23:
  3752                           	callstack 0
  3753   001FE6                     _Timer1_DefaultInterruptHandler:
  3754                           	callstack 20
  3755   001FE6                     
  3756                           ;application.c: 24:     timer1_on++;;application.c: 24:     timer1_on++;
  3757   001FE6  0E01               	movlw	1
  3758   001FE8  0100               	movlb	0	; () banked
  3759   001FEA  27C3               	addwf	_timer1_on& (0+255),f,b	;volatile
  3760   001FEC  0E00               	movlw	0
  3761   001FEE  23C4               	addwfc	(_timer1_on+1)& (0+255),f,b	;volatile
  3762   001FF0  23C5               	addwfc	(_timer1_on+2)& (0+255),f,b	;volatile
  3763   001FF2  23C6               	addwfc	(_timer1_on+3)& (0+255),f,b	;volatile
  3764   001FF4                     
  3765                           ; BSR set to: 0
  3766                           ;application.c: 25:     led_turn_toggle(&led1);;application.c: 25:     led_turn_toggle(&
      +                          led1);
  3767   001FF4  0E6D               	movlw	low _led1
  3768   001FF6  6E52               	movwf	led_turn_toggle@led^0,c
  3769   001FF8  0E00               	movlw	high _led1
  3770   001FFA  6E53               	movwf	(led_turn_toggle@led+1)^0,c
  3771   001FFC  EC7D  F00E         	call	_led_turn_toggle	;wreg free
  3772   002000  0012               	return		;funcret
  3773   002002                     __end_of_Timer1_DefaultInterruptHandler:
  3774                           	callstack 0
  3775                           
  3776 ;; *************** function _led_turn_toggle *****************
  3777 ;; Defined at:
  3778 ;;		line 87 in file "ECU_Layer/LED/ecu_led.c"
  3779 ;; Parameters:    Size  Location     Type
  3780 ;;  led             2    7[COMRAM] PTR const struct .
  3781 ;;		 -> led1(1), 
  3782 ;; Auto vars:     Size  Location     Type
  3783 ;;  pin_obj         1   10[COMRAM] struct .
  3784 ;;  ret             1    0        unsigned char 
  3785 ;; Return value:  Size  Location     Type
  3786 ;;                  1    wreg      unsigned char 
  3787 ;; Registers used:
  3788 ;;		wreg, fsr2l, fsr2h, status,2, status,0, prodl, prodh, cstack
  3789 ;; Tracked objects:
  3790 ;;		On entry : 0/0
  3791 ;;		On exit  : 0/0
  3792 ;;		Unchanged: 0/0
  3793 ;; Data sizes:     COMRAM   BANK0   BANK1   BANK2   BANK3   BANK4   BANK5   BANK6   BANK7   BANK8   BANK9  BANK10  BANK1
      +1  BANK12  BANK13  BANK14  BANK15
  3794 ;;      Params:         2       0       0       0       0       0       0       0       0       0       0       0       
      +0       0       0       0       0
  3795 ;;      Locals:         1       0       0       0       0       0       0       0       0       0       0       0       
      +0       0       0       0       0
  3796 ;;      Temps:          1       0       0       0       0       0       0       0       0       0       0       0       
      +0       0       0       0       0
  3797 ;;      Totals:         4       0       0       0       0       0       0       0       0       0       0       0       
      +0       0       0       0       0
  3798 ;;Total ram usage:        4 bytes
  3799 ;; Hardware stack levels used: 1
  3800 ;; Hardware stack levels required when called: 1
  3801 ;; This function calls:
  3802 ;;		_gpio_pin_toggle_logic
  3803 ;; This function is called by:
  3804 ;;		_Timer1_DefaultInterruptHandler
  3805 ;; This function uses a non-reentrant model
  3806 ;;
  3807                           
  3808                           	psect	text24
  3809   001CFA                     __ptext24:
  3810                           	callstack 0
  3811   001CFA                     _led_turn_toggle:
  3812                           	callstack 20
  3813   001CFA                     
  3814                           ;ECU_Layer/LED/ecu_led.c: 90:      if(((void*)0) == led)
  3815   001CFA  5052               	movf	led_turn_toggle@led^0,w,c
  3816   001CFC  1053               	iorwf	(led_turn_toggle@led+1)^0,w,c
  3817   001CFE  A4D8               	btfss	status,2,c
  3818   001D00  EF84  F00E         	goto	i2u329_41
  3819   001D04  EF86  F00E         	goto	i2u329_40
  3820   001D08                     i2u329_41:
  3821   001D08  EF88  F00E         	goto	i2l291
  3822   001D0C                     i2u329_40:
  3823   001D0C                     
  3824                           ;ECU_Layer/LED/ecu_led.c: 93:      }
  3825   001D0C  EFB5  F00E         	goto	i2l295
  3826   001D10                     i2l291:
  3827                           
  3828                           ;ECU_Layer/LED/ecu_led.c: 95:      {;ECU_Layer/LED/ecu_led.c: 96:         pin_config_t p
      +                          in_obj = { .port = led->port_name, .pin = led->pin, .direction = GPIO_DIRECTION_OUTPUT,.
      +                          logic = led->led_status };
  3829   001D10  C03F  F055         	movff	led_turn_toggle@F3063,led_turn_toggle@pin_obj
  3830   001D14  C052  FFD9         	movff	led_turn_toggle@led,fsr2l
  3831   001D18  C053  FFDA         	movff	led_turn_toggle@led+1,fsr2h
  3832   001D1C  50DF               	movf	223,w,c
  3833   001D1E  0B0F               	andlw	15
  3834   001D20  6E54               	movwf	??_led_turn_toggle^0,c
  3835   001D22  5055               	movf	led_turn_toggle@pin_obj^0,w,c
  3836   001D24  1854               	xorwf	??_led_turn_toggle^0,w,c
  3837   001D26  0BF8               	andlw	-8
  3838   001D28  1854               	xorwf	??_led_turn_toggle^0,w,c
  3839   001D2A  6E55               	movwf	led_turn_toggle@pin_obj^0,c
  3840   001D2C  C052  FFD9         	movff	led_turn_toggle@led,fsr2l
  3841   001D30  C053  FFDA         	movff	led_turn_toggle@led+1,fsr2h
  3842   001D34  38DF               	swapf	223,w,c
  3843   001D36  0B07               	andlw	7
  3844   001D38  6E54               	movwf	??_led_turn_toggle^0,c
  3845   001D3A  4654               	rlncf	??_led_turn_toggle^0,f,c
  3846   001D3C  4654               	rlncf	??_led_turn_toggle^0,f,c
  3847   001D3E  4654               	rlncf	??_led_turn_toggle^0,f,c
  3848   001D40  5055               	movf	led_turn_toggle@pin_obj^0,w,c
  3849   001D42  1854               	xorwf	??_led_turn_toggle^0,w,c
  3850   001D44  0BC7               	andlw	-57
  3851   001D46  1854               	xorwf	??_led_turn_toggle^0,w,c
  3852   001D48  6E55               	movwf	led_turn_toggle@pin_obj^0,c
  3853   001D4A  9C55               	bcf	led_turn_toggle@pin_obj^0,6,c
  3854   001D4C  C052  FFD9         	movff	led_turn_toggle@led,fsr2l
  3855   001D50  C053  FFDA         	movff	led_turn_toggle@led+1,fsr2h
  3856   001D54  AEDF               	btfss	indf2,7,c
  3857   001D56  D002               	bra	i2u330_45
  3858   001D58  8E55               	bsf	led_turn_toggle@pin_obj^0,7,c
  3859   001D5A  D001               	bra	i2u330_47
  3860   001D5C                     i2u330_45:
  3861   001D5C  9E55               	bcf	led_turn_toggle@pin_obj^0,7,c
  3862   001D5E                     i2u330_47:
  3863   001D5E                     
  3864                           ;ECU_Layer/LED/ecu_led.c: 97:         gpio_pin_toggle_logic(&pin_obj);
  3865   001D5E  0E55               	movlw	low led_turn_toggle@pin_obj
  3866   001D60  6E4B               	movwf	gpio_pin_toggle_logic@_pin_config^0,c
  3867   001D62  0E00               	movlw	high led_turn_toggle@pin_obj
  3868   001D64  6E4C               	movwf	(gpio_pin_toggle_logic@_pin_config+1)^0,c
  3869   001D66  EC3C  F00D         	call	_gpio_pin_toggle_logic	;wreg free
  3870   001D6A                     i2l295:
  3871   001D6A  0012               	return		;funcret
  3872   001D6C                     __end_of_led_turn_toggle:
  3873                           	callstack 0
  3874                           
  3875 ;; *************** function _gpio_pin_toggle_logic *****************
  3876 ;; Defined at:
  3877 ;;		line 144 in file "MCAL_Layer/GPIO/hal_gpio.c"
  3878 ;; Parameters:    Size  Location     Type
  3879 ;;  _pin_config     2    0[COMRAM] PTR const struct .
  3880 ;;		 -> led_turn_toggle@pin_obj(1), 
  3881 ;; Auto vars:     Size  Location     Type
  3882 ;;  ret             1    0        unsigned char 
  3883 ;; Return value:  Size  Location     Type
  3884 ;;                  1    wreg      unsigned char 
  3885 ;; Registers used:
  3886 ;;		wreg, fsr2l, fsr2h, status,2, status,0, prodl, prodh
  3887 ;; Tracked objects:
  3888 ;;		On entry : 0/0
  3889 ;;		On exit  : 0/0
  3890 ;;		Unchanged: 0/0
  3891 ;; Data sizes:     COMRAM   BANK0   BANK1   BANK2   BANK3   BANK4   BANK5   BANK6   BANK7   BANK8   BANK9  BANK10  BANK1
      +1  BANK12  BANK13  BANK14  BANK15
  3892 ;;      Params:         2       0       0       0       0       0       0       0       0       0       0       0       
      +0       0       0       0       0
  3893 ;;      Locals:         0       0       0       0       0       0       0       0       0       0       0       0       
      +0       0       0       0       0
  3894 ;;      Temps:          5       0       0       0       0       0       0       0       0       0       0       0       
      +0       0       0       0       0
  3895 ;;      Totals:         7       0       0       0       0       0       0       0       0       0       0       0       
      +0       0       0       0       0
  3896 ;;Total ram usage:        7 bytes
  3897 ;; Hardware stack levels used: 1
  3898 ;; This function calls:
  3899 ;;		Nothing
  3900 ;; This function is called by:
  3901 ;;		_led_turn_toggle
  3902 ;; This function uses a non-reentrant model
  3903 ;;
  3904                           
  3905                           	psect	text25
  3906   001A78                     __ptext25:
  3907                           	callstack 0
  3908   001A78                     _gpio_pin_toggle_logic:
  3909                           	callstack 20
  3910   001A78                     
  3911                           ;MCAL_Layer/GPIO/hal_gpio.c: 147:     if(((void*)0) == _pin_config || _pin_config->pin >
      +                           8 -1)
  3912   001A78  504B               	movf	gpio_pin_toggle_logic@_pin_config^0,w,c
  3913   001A7A  104C               	iorwf	(gpio_pin_toggle_logic@_pin_config+1)^0,w,c
  3914   001A7C  B4D8               	btfsc	status,2,c
  3915   001A7E  EF43  F00D         	goto	i2u322_41
  3916   001A82  EF45  F00D         	goto	i2u322_40
  3917   001A86                     i2u322_41:
  3918   001A86  EF56  F00D         	goto	i2l4989
  3919   001A8A                     i2u322_40:
  3920   001A8A  C04B  FFD9         	movff	gpio_pin_toggle_logic@_pin_config,fsr2l
  3921   001A8E  C04C  FFDA         	movff	gpio_pin_toggle_logic@_pin_config+1,fsr2h
  3922   001A92  30DF               	rrcf	223,w,c
  3923   001A94  32E8               	rrcf	wreg,f,c
  3924   001A96  32E8               	rrcf	wreg,f,c
  3925   001A98  0B07               	andlw	7
  3926   001A9A  6E4D               	movwf	??_gpio_pin_toggle_logic^0,c
  3927   001A9C  0E07               	movlw	7
  3928   001A9E  644D               	cpfsgt	??_gpio_pin_toggle_logic^0,c
  3929   001AA0  EF54  F00D         	goto	i2u323_41
  3930   001AA4  EF56  F00D         	goto	i2u323_40
  3931   001AA8                     i2u323_41:
  3932   001AA8  EF58  F00D         	goto	i2l4991
  3933   001AAC                     i2u323_40:
  3934   001AAC                     i2l4989:
  3935                           
  3936                           ;MCAL_Layer/GPIO/hal_gpio.c: 150:     }
  3937   001AAC  EF84  F00D         	goto	i2l706
  3938   001AB0                     i2l4991:
  3939                           
  3940                           ;MCAL_Layer/GPIO/hal_gpio.c: 152:     {;MCAL_Layer/GPIO/hal_gpio.c: 153:         (*lat_r
      +                          egisters[_pin_config->port] ^= ((uint8)1 << _pin_config->pin));
  3941   001AB0  C04B  FFD9         	movff	gpio_pin_toggle_logic@_pin_config,fsr2l
  3942   001AB4  C04C  FFDA         	movff	gpio_pin_toggle_logic@_pin_config+1,fsr2h
  3943   001AB8  30DF               	rrcf	223,w,c
  3944   001ABA  32E8               	rrcf	wreg,f,c
  3945   001ABC  32E8               	rrcf	wreg,f,c
  3946   001ABE  0B07               	andlw	7
  3947   001AC0  6E4D               	movwf	??_gpio_pin_toggle_logic^0,c
  3948   001AC2  0E01               	movlw	1
  3949   001AC4  6E4E               	movwf	(??_gpio_pin_toggle_logic+1)^0,c
  3950   001AC6  2A4D               	incf	??_gpio_pin_toggle_logic^0,f,c
  3951   001AC8  EF68  F00D         	goto	i2u324_44
  3952   001ACC                     i2u324_45:
  3953   001ACC  90D8               	bcf	status,0,c
  3954   001ACE  364E               	rlcf	(??_gpio_pin_toggle_logic+1)^0,f,c
  3955   001AD0                     i2u324_44:
  3956   001AD0  2E4D               	decfsz	??_gpio_pin_toggle_logic^0,f,c
  3957   001AD2  EF66  F00D         	goto	i2u324_45
  3958   001AD6  C04B  FFD9         	movff	gpio_pin_toggle_logic@_pin_config,fsr2l
  3959   001ADA  C04C  FFDA         	movff	gpio_pin_toggle_logic@_pin_config+1,fsr2h
  3960   001ADE  50DF               	movf	223,w,c
  3961   001AE0  0B07               	andlw	7
  3962   001AE2  6E4F               	movwf	(??_gpio_pin_toggle_logic+2)^0,c
  3963   001AE4  504F               	movf	(??_gpio_pin_toggle_logic+2)^0,w,c
  3964   001AE6  0D02               	mullw	2
  3965   001AE8  0E8A               	movlw	low _lat_registers
  3966   001AEA  24F3               	addwf	243,w,c
  3967   001AEC  6ED9               	movwf	fsr2l,c
  3968   001AEE  0E00               	movlw	high _lat_registers
  3969   001AF0  20F4               	addwfc	prodh,w,c
  3970   001AF2  6EDA               	movwf	fsr2h,c
  3971   001AF4  CFDE F050          	movff	postinc2,??_gpio_pin_toggle_logic+3
  3972   001AF8  CFDD F051          	movff	postdec2,??_gpio_pin_toggle_logic+4
  3973   001AFC  C050  FFD9         	movff	??_gpio_pin_toggle_logic+3,fsr2l
  3974   001B00  C051  FFDA         	movff	??_gpio_pin_toggle_logic+4,fsr2h
  3975   001B04  504E               	movf	(??_gpio_pin_toggle_logic+1)^0,w,c
  3976   001B06  1ADF               	xorwf	indf2,f,c
  3977   001B08                     i2l706:
  3978   001B08  0012               	return		;funcret
  3979   001B0A                     __end_of_gpio_pin_toggle_logic:
  3980                           	callstack 0
  3981                           
  3982 ;; *************** function _TMR0_ISR *****************
  3983 ;; Defined at:
  3984 ;;		line 186 in file "MCAL_Layer/Timer0/hal_timer0.c"
  3985 ;; Parameters:    Size  Location     Type
  3986 ;;		None
  3987 ;; Auto vars:     Size  Location     Type
  3988 ;;		None
  3989 ;; Return value:  Size  Location     Type
  3990 ;;                  1    wreg      void 
  3991 ;; Registers used:
  3992 ;;		wreg, status,2
  3993 ;; Tracked objects:
  3994 ;;		On entry : 0/0
  3995 ;;		On exit  : 0/0
  3996 ;;		Unchanged: 0/0
  3997 ;; Data sizes:     COMRAM   BANK0   BANK1   BANK2   BANK3   BANK4   BANK5   BANK6   BANK7   BANK8   BANK9  BANK10  BANK1
      +1  BANK12  BANK13  BANK14  BANK15
  3998 ;;      Params:         0       0       0       0       0       0       0       0       0       0       0       0       
      +0       0       0       0       0
  3999 ;;      Locals:         0       0       0       0       0       0       0       0       0       0       0       0       
      +0       0       0       0       0
  4000 ;;      Temps:          0       0       0       0       0       0       0       0       0       0       0       0       
      +0       0       0       0       0
  4001 ;;      Totals:         0       0       0       0       0       0       0       0       0       0       0       0       
      +0       0       0       0       0
  4002 ;;Total ram usage:        0 bytes
  4003 ;; Hardware stack levels used: 1
  4004 ;; This function calls:
  4005 ;;		Nothing
  4006 ;; This function is called by:
  4007 ;;		_InterruptManager
  4008 ;; This function uses a non-reentrant model
  4009 ;;
  4010                           
  4011                           	psect	text26
  4012   002076                     __ptext26:
  4013                           	callstack 0
  4014   002076                     _TMR0_ISR:
  4015                           	callstack 23
  4016   002076                     
  4017                           ;MCAL_Layer/Timer0/hal_timer0.c: 188:     (INTCONbits.TMR0IF = 0);
  4018   002076  94F2               	bcf	242,2,c	;volatile
  4019   002078                     
  4020                           ;MCAL_Layer/Timer0/hal_timer0.c: 189:     TMR0H = (timer0_preload) >> 8;
  4021   002078  5016               	movf	(_timer0_preload+1)^0,w,c
  4022   00207A  6ED7               	movwf	215,c	;volatile
  4023   00207C                     
  4024                           ;MCAL_Layer/Timer0/hal_timer0.c: 190:     TMR0L = (uint8)(timer0_preload);
  4025   00207C  C015  FFD6         	movff	_timer0_preload,4054	;volatile
  4026   002080  0012               	return		;funcret
  4027   002082                     __end_of_TMR0_ISR:
  4028                           	callstack 0
  4029                           
  4030 ;; *************** function _RB7_ISR *****************
  4031 ;; Defined at:
  4032 ;;		line 284 in file "MCAL_Layer/Interrupt/mcal_external_interrupt.c"
  4033 ;; Parameters:    Size  Location     Type
  4034 ;;  RB7_Source      1    wreg     unsigned char 
  4035 ;; Auto vars:     Size  Location     Type
  4036 ;;  RB7_Source      1    0[COMRAM] unsigned char 
  4037 ;; Return value:  Size  Location     Type
  4038 ;;                  1    wreg      void 
  4039 ;; Registers used:
  4040 ;;		wreg, status,2, status,0
  4041 ;; Tracked objects:
  4042 ;;		On entry : 0/0
  4043 ;;		On exit  : 0/0
  4044 ;;		Unchanged: 0/0
  4045 ;; Data sizes:     COMRAM   BANK0   BANK1   BANK2   BANK3   BANK4   BANK5   BANK6   BANK7   BANK8   BANK9  BANK10  BANK1
      +1  BANK12  BANK13  BANK14  BANK15
  4046 ;;      Params:         0       0       0       0       0       0       0       0       0       0       0       0       
      +0       0       0       0       0
  4047 ;;      Locals:         1       0       0       0       0       0       0       0       0       0       0       0       
      +0       0       0       0       0
  4048 ;;      Temps:          0       0       0       0       0       0       0       0       0       0       0       0       
      +0       0       0       0       0
  4049 ;;      Totals:         1       0       0       0       0       0       0       0       0       0       0       0       
      +0       0       0       0       0
  4050 ;;Total ram usage:        1 bytes
  4051 ;; Hardware stack levels used: 1
  4052 ;; This function calls:
  4053 ;;		Nothing
  4054 ;; This function is called by:
  4055 ;;		_InterruptManager
  4056 ;; This function uses a non-reentrant model
  4057 ;;
  4058                           
  4059                           	psect	text27
  4060   002002                     __ptext27:
  4061                           	callstack 0
  4062   002002                     _RB7_ISR:
  4063                           	callstack 23
  4064                           
  4065                           ;incstack = 0
  4066                           ;RB7_ISR@RB7_Source stored from wreg
  4067   002002  6E4B               	movwf	RB7_ISR@RB7_Source^0,c
  4068   002004                     
  4069                           ;MCAL_Layer/Interrupt/mcal_external_interrupt.c: 284: void RB7_ISR(uint8 RB7_Source);MCA
      +                          L_Layer/Interrupt/mcal_external_interrupt.c: 285: {;MCAL_Layer/Interrupt/mcal_external_i
      +                          nterrupt.c: 286:     (INTCONbits.RBIF = 0);
  4070   002004  90F2               	bcf	242,0,c	;volatile
  4071   002006                     
  4072                           ;MCAL_Layer/Interrupt/mcal_external_interrupt.c: 287:     if(0 == RB7_Source)
  4073   002006  504B               	movf	RB7_ISR@RB7_Source^0,w,c
  4074   002008  A4D8               	btfss	status,2,c
  4075   00200A  EF09  F010         	goto	i2u53_41
  4076   00200E  EF0B  F010         	goto	i2u53_40
  4077   002012                     i2u53_41:
  4078   002012  EF0D  F010         	goto	i2l2825
  4079   002016                     i2u53_40:
  4080   002016  EF0D  F010         	goto	i2l987
  4081   00201A                     i2l2825:
  4082   00201A                     i2l987:
  4083   00201A  0012               	return		;funcret
  4084   00201C                     __end_of_RB7_ISR:
  4085                           	callstack 0
  4086                           
  4087 ;; *************** function _RB6_ISR *****************
  4088 ;; Defined at:
  4089 ;;		line 264 in file "MCAL_Layer/Interrupt/mcal_external_interrupt.c"
  4090 ;; Parameters:    Size  Location     Type
  4091 ;;  RB6_Source      1    wreg     unsigned char 
  4092 ;; Auto vars:     Size  Location     Type
  4093 ;;  RB6_Source      1    0[COMRAM] unsigned char 
  4094 ;; Return value:  Size  Location     Type
  4095 ;;                  1    wreg      void 
  4096 ;; Registers used:
  4097 ;;		wreg, status,2, status,0
  4098 ;; Tracked objects:
  4099 ;;		On entry : 0/0
  4100 ;;		On exit  : 0/0
  4101 ;;		Unchanged: 0/0
  4102 ;; Data sizes:     COMRAM   BANK0   BANK1   BANK2   BANK3   BANK4   BANK5   BANK6   BANK7   BANK8   BANK9  BANK10  BANK1
      +1  BANK12  BANK13  BANK14  BANK15
  4103 ;;      Params:         0       0       0       0       0       0       0       0       0       0       0       0       
      +0       0       0       0       0
  4104 ;;      Locals:         1       0       0       0       0       0       0       0       0       0       0       0       
      +0       0       0       0       0
  4105 ;;      Temps:          0       0       0       0       0       0       0       0       0       0       0       0       
      +0       0       0       0       0
  4106 ;;      Totals:         1       0       0       0       0       0       0       0       0       0       0       0       
      +0       0       0       0       0
  4107 ;;Total ram usage:        1 bytes
  4108 ;; Hardware stack levels used: 1
  4109 ;; This function calls:
  4110 ;;		Nothing
  4111 ;; This function is called by:
  4112 ;;		_InterruptManager
  4113 ;; This function uses a non-reentrant model
  4114 ;;
  4115                           
  4116                           	psect	text28
  4117   00201C                     __ptext28:
  4118                           	callstack 0
  4119   00201C                     _RB6_ISR:
  4120                           	callstack 23
  4121                           
  4122                           ;incstack = 0
  4123                           ;RB6_ISR@RB6_Source stored from wreg
  4124   00201C  6E4B               	movwf	RB6_ISR@RB6_Source^0,c
  4125   00201E                     
  4126                           ;MCAL_Layer/Interrupt/mcal_external_interrupt.c: 264: void RB6_ISR(uint8 RB6_Source);MCA
      +                          L_Layer/Interrupt/mcal_external_interrupt.c: 265: {;MCAL_Layer/Interrupt/mcal_external_i
      +                          nterrupt.c: 266:     (INTCONbits.RBIF = 0);
  4127   00201E  90F2               	bcf	242,0,c	;volatile
  4128   002020                     
  4129                           ;MCAL_Layer/Interrupt/mcal_external_interrupt.c: 267:     if(0 == RB6_Source)
  4130   002020  504B               	movf	RB6_ISR@RB6_Source^0,w,c
  4131   002022  A4D8               	btfss	status,2,c
  4132   002024  EF16  F010         	goto	i2u52_41
  4133   002028  EF18  F010         	goto	i2u52_40
  4134   00202C                     i2u52_41:
  4135   00202C  EF1A  F010         	goto	i2l2811
  4136   002030                     i2u52_40:
  4137   002030  EF1A  F010         	goto	i2l976
  4138   002034                     i2l2811:
  4139   002034                     i2l976:
  4140   002034  0012               	return		;funcret
  4141   002036                     __end_of_RB6_ISR:
  4142                           	callstack 0
  4143                           
  4144 ;; *************** function _RB5_ISR *****************
  4145 ;; Defined at:
  4146 ;;		line 244 in file "MCAL_Layer/Interrupt/mcal_external_interrupt.c"
  4147 ;; Parameters:    Size  Location     Type
  4148 ;;  RB5_Source      1    wreg     unsigned char 
  4149 ;; Auto vars:     Size  Location     Type
  4150 ;;  RB5_Source      1    0[COMRAM] unsigned char 
  4151 ;; Return value:  Size  Location     Type
  4152 ;;                  1    wreg      void 
  4153 ;; Registers used:
  4154 ;;		wreg, status,2, status,0
  4155 ;; Tracked objects:
  4156 ;;		On entry : 0/0
  4157 ;;		On exit  : 0/0
  4158 ;;		Unchanged: 0/0
  4159 ;; Data sizes:     COMRAM   BANK0   BANK1   BANK2   BANK3   BANK4   BANK5   BANK6   BANK7   BANK8   BANK9  BANK10  BANK1
      +1  BANK12  BANK13  BANK14  BANK15
  4160 ;;      Params:         0       0       0       0       0       0       0       0       0       0       0       0       
      +0       0       0       0       0
  4161 ;;      Locals:         1       0       0       0       0       0       0       0       0       0       0       0       
      +0       0       0       0       0
  4162 ;;      Temps:          0       0       0       0       0       0       0       0       0       0       0       0       
      +0       0       0       0       0
  4163 ;;      Totals:         1       0       0       0       0       0       0       0       0       0       0       0       
      +0       0       0       0       0
  4164 ;;Total ram usage:        1 bytes
  4165 ;; Hardware stack levels used: 1
  4166 ;; This function calls:
  4167 ;;		Nothing
  4168 ;; This function is called by:
  4169 ;;		_InterruptManager
  4170 ;; This function uses a non-reentrant model
  4171 ;;
  4172                           
  4173                           	psect	text29
  4174   002036                     __ptext29:
  4175                           	callstack 0
  4176   002036                     _RB5_ISR:
  4177                           	callstack 23
  4178                           
  4179                           ;incstack = 0
  4180                           ;RB5_ISR@RB5_Source stored from wreg
  4181   002036  6E4B               	movwf	RB5_ISR@RB5_Source^0,c
  4182   002038                     
  4183                           ;MCAL_Layer/Interrupt/mcal_external_interrupt.c: 244: void RB5_ISR(uint8 RB5_Source);MCA
      +                          L_Layer/Interrupt/mcal_external_interrupt.c: 245: {;MCAL_Layer/Interrupt/mcal_external_i
      +                          nterrupt.c: 246:     (INTCONbits.RBIF = 0);
  4184   002038  90F2               	bcf	242,0,c	;volatile
  4185   00203A                     
  4186                           ;MCAL_Layer/Interrupt/mcal_external_interrupt.c: 247:     if(0 == RB5_Source)
  4187   00203A  504B               	movf	RB5_ISR@RB5_Source^0,w,c
  4188   00203C  A4D8               	btfss	status,2,c
  4189   00203E  EF23  F010         	goto	i2u51_41
  4190   002042  EF25  F010         	goto	i2u51_40
  4191   002046                     i2u51_41:
  4192   002046  EF27  F010         	goto	i2l2797
  4193   00204A                     i2u51_40:
  4194   00204A  EF27  F010         	goto	i2l965
  4195   00204E                     i2l2797:
  4196   00204E                     i2l965:
  4197   00204E  0012               	return		;funcret
  4198   002050                     __end_of_RB5_ISR:
  4199                           	callstack 0
  4200                           
  4201 ;; *************** function _RB4_ISR *****************
  4202 ;; Defined at:
  4203 ;;		line 224 in file "MCAL_Layer/Interrupt/mcal_external_interrupt.c"
  4204 ;; Parameters:    Size  Location     Type
  4205 ;;  RB4_Source      1    wreg     unsigned char 
  4206 ;; Auto vars:     Size  Location     Type
  4207 ;;  RB4_Source      1    0[COMRAM] unsigned char 
  4208 ;; Return value:  Size  Location     Type
  4209 ;;                  1    wreg      void 
  4210 ;; Registers used:
  4211 ;;		wreg, status,2, status,0
  4212 ;; Tracked objects:
  4213 ;;		On entry : 0/0
  4214 ;;		On exit  : 0/0
  4215 ;;		Unchanged: 0/0
  4216 ;; Data sizes:     COMRAM   BANK0   BANK1   BANK2   BANK3   BANK4   BANK5   BANK6   BANK7   BANK8   BANK9  BANK10  BANK1
      +1  BANK12  BANK13  BANK14  BANK15
  4217 ;;      Params:         0       0       0       0       0       0       0       0       0       0       0       0       
      +0       0       0       0       0
  4218 ;;      Locals:         1       0       0       0       0       0       0       0       0       0       0       0       
      +0       0       0       0       0
  4219 ;;      Temps:          0       0       0       0       0       0       0       0       0       0       0       0       
      +0       0       0       0       0
  4220 ;;      Totals:         1       0       0       0       0       0       0       0       0       0       0       0       
      +0       0       0       0       0
  4221 ;;Total ram usage:        1 bytes
  4222 ;; Hardware stack levels used: 1
  4223 ;; This function calls:
  4224 ;;		Nothing
  4225 ;; This function is called by:
  4226 ;;		_InterruptManager
  4227 ;; This function uses a non-reentrant model
  4228 ;;
  4229                           
  4230                           	psect	text30
  4231   002050                     __ptext30:
  4232                           	callstack 0
  4233   002050                     _RB4_ISR:
  4234                           	callstack 23
  4235                           
  4236                           ;incstack = 0
  4237                           ;RB4_ISR@RB4_Source stored from wreg
  4238   002050  6E4B               	movwf	RB4_ISR@RB4_Source^0,c
  4239   002052                     
  4240                           ;MCAL_Layer/Interrupt/mcal_external_interrupt.c: 224: void RB4_ISR(uint8 RB4_Source);MCA
      +                          L_Layer/Interrupt/mcal_external_interrupt.c: 225: {;MCAL_Layer/Interrupt/mcal_external_i
      +                          nterrupt.c: 226:     (INTCONbits.RBIF = 0);
  4241   002052  90F2               	bcf	242,0,c	;volatile
  4242   002054                     
  4243                           ;MCAL_Layer/Interrupt/mcal_external_interrupt.c: 227:     if(0 == RB4_Source)
  4244   002054  504B               	movf	RB4_ISR@RB4_Source^0,w,c
  4245   002056  A4D8               	btfss	status,2,c
  4246   002058  EF30  F010         	goto	i2u50_41
  4247   00205C  EF32  F010         	goto	i2u50_40
  4248   002060                     i2u50_41:
  4249   002060  EF34  F010         	goto	i2l2783
  4250   002064                     i2u50_40:
  4251   002064  EF34  F010         	goto	i2l954
  4252   002068                     i2l2783:
  4253   002068                     i2l954:
  4254   002068  0012               	return		;funcret
  4255   00206A                     __end_of_RB4_ISR:
  4256                           	callstack 0
  4257                           
  4258 ;; *************** function _MSSP_I2C_ISR *****************
  4259 ;; Defined at:
  4260 ;;		line 357 in file "MCAL_Layer/I2C/hal_i2c.c"
  4261 ;; Parameters:    Size  Location     Type
  4262 ;;		None
  4263 ;; Auto vars:     Size  Location     Type
  4264 ;;		None
  4265 ;; Return value:  Size  Location     Type
  4266 ;;                  1    wreg      void 
  4267 ;; Registers used:
  4268 ;;		None
  4269 ;; Tracked objects:
  4270 ;;		On entry : 0/0
  4271 ;;		On exit  : 0/0
  4272 ;;		Unchanged: 0/0
  4273 ;; Data sizes:     COMRAM   BANK0   BANK1   BANK2   BANK3   BANK4   BANK5   BANK6   BANK7   BANK8   BANK9  BANK10  BANK1
      +1  BANK12  BANK13  BANK14  BANK15
  4274 ;;      Params:         0       0       0       0       0       0       0       0       0       0       0       0       
      +0       0       0       0       0
  4275 ;;      Locals:         0       0       0       0       0       0       0       0       0       0       0       0       
      +0       0       0       0       0
  4276 ;;      Temps:          0       0       0       0       0       0       0       0       0       0       0       0       
      +0       0       0       0       0
  4277 ;;      Totals:         0       0       0       0       0       0       0       0       0       0       0       0       
      +0       0       0       0       0
  4278 ;;Total ram usage:        0 bytes
  4279 ;; Hardware stack levels used: 1
  4280 ;; This function calls:
  4281 ;;		Nothing
  4282 ;; This function is called by:
  4283 ;;		_InterruptManager
  4284 ;; This function uses a non-reentrant model
  4285 ;;
  4286                           
  4287                           	psect	text31
  4288   00209A                     __ptext31:
  4289                           	callstack 0
  4290   00209A                     _MSSP_I2C_ISR:
  4291                           	callstack 23
  4292   00209A                     
  4293                           ;MCAL_Layer/I2C/hal_i2c.c: 360:     (PIR1bits.SSPIF = 0);
  4294   00209A  969E               	bcf	158,3,c	;volatile
  4295   00209C  0012               	return		;funcret
  4296   00209E                     __end_of_MSSP_I2C_ISR:
  4297                           	callstack 0
  4298                           
  4299 ;; *************** function _MSSP_I2C_BC_ISR *****************
  4300 ;; Defined at:
  4301 ;;		line 372 in file "MCAL_Layer/I2C/hal_i2c.c"
  4302 ;; Parameters:    Size  Location     Type
  4303 ;;		None
  4304 ;; Auto vars:     Size  Location     Type
  4305 ;;		None
  4306 ;; Return value:  Size  Location     Type
  4307 ;;                  1    wreg      void 
  4308 ;; Registers used:
  4309 ;;		None
  4310 ;; Tracked objects:
  4311 ;;		On entry : 0/0
  4312 ;;		On exit  : 0/0
  4313 ;;		Unchanged: 0/0
  4314 ;; Data sizes:     COMRAM   BANK0   BANK1   BANK2   BANK3   BANK4   BANK5   BANK6   BANK7   BANK8   BANK9  BANK10  BANK1
      +1  BANK12  BANK13  BANK14  BANK15
  4315 ;;      Params:         0       0       0       0       0       0       0       0       0       0       0       0       
      +0       0       0       0       0
  4316 ;;      Locals:         0       0       0       0       0       0       0       0       0       0       0       0       
      +0       0       0       0       0
  4317 ;;      Temps:          0       0       0       0       0       0       0       0       0       0       0       0       
      +0       0       0       0       0
  4318 ;;      Totals:         0       0       0       0       0       0       0       0       0       0       0       0       
      +0       0       0       0       0
  4319 ;;Total ram usage:        0 bytes
  4320 ;; Hardware stack levels used: 1
  4321 ;; This function calls:
  4322 ;;		Nothing
  4323 ;; This function is called by:
  4324 ;;		_InterruptManager
  4325 ;; This function uses a non-reentrant model
  4326 ;;
  4327                           
  4328                           	psect	text32
  4329   00209E                     __ptext32:
  4330                           	callstack 0
  4331   00209E                     _MSSP_I2C_BC_ISR:
  4332                           	callstack 23
  4333   00209E                     
  4334                           ;MCAL_Layer/I2C/hal_i2c.c: 375:     (PIR2bits.BCLIF = 0);
  4335   00209E  96A1               	bcf	161,3,c	;volatile
  4336   0020A0  0012               	return		;funcret
  4337   0020A2                     __end_of_MSSP_I2C_BC_ISR:
  4338                           	callstack 0
  4339                           
  4340 ;; *************** function _INT2_ISR *****************
  4341 ;; Defined at:
  4342 ;;		line 213 in file "MCAL_Layer/Interrupt/mcal_external_interrupt.c"
  4343 ;; Parameters:    Size  Location     Type
  4344 ;;		None
  4345 ;; Auto vars:     Size  Location     Type
  4346 ;;		None
  4347 ;; Return value:  Size  Location     Type
  4348 ;;                  1    wreg      void 
  4349 ;; Registers used:
  4350 ;;		None
  4351 ;; Tracked objects:
  4352 ;;		On entry : 0/0
  4353 ;;		On exit  : 0/0
  4354 ;;		Unchanged: 0/0
  4355 ;; Data sizes:     COMRAM   BANK0   BANK1   BANK2   BANK3   BANK4   BANK5   BANK6   BANK7   BANK8   BANK9  BANK10  BANK1
      +1  BANK12  BANK13  BANK14  BANK15
  4356 ;;      Params:         0       0       0       0       0       0       0       0       0       0       0       0       
      +0       0       0       0       0
  4357 ;;      Locals:         0       0       0       0       0       0       0       0       0       0       0       0       
      +0       0       0       0       0
  4358 ;;      Temps:          0       0       0       0       0       0       0       0       0       0       0       0       
      +0       0       0       0       0
  4359 ;;      Totals:         0       0       0       0       0       0       0       0       0       0       0       0       
      +0       0       0       0       0
  4360 ;;Total ram usage:        0 bytes
  4361 ;; Hardware stack levels used: 1
  4362 ;; This function calls:
  4363 ;;		Nothing
  4364 ;; This function is called by:
  4365 ;;		_InterruptManager
  4366 ;; This function uses a non-reentrant model
  4367 ;;
  4368                           
  4369                           	psect	text33
  4370   0020A2                     __ptext33:
  4371                           	callstack 0
  4372   0020A2                     _INT2_ISR:
  4373                           	callstack 23
  4374   0020A2                     
  4375                           ;MCAL_Layer/Interrupt/mcal_external_interrupt.c: 215:     (INTCON3bits.INT2IF = 0);
  4376   0020A2  92F0               	bcf	240,1,c	;volatile
  4377   0020A4  0012               	return		;funcret
  4378   0020A6                     __end_of_INT2_ISR:
  4379                           	callstack 0
  4380                           
  4381 ;; *************** function _INT1_ISR *****************
  4382 ;; Defined at:
  4383 ;;		line 203 in file "MCAL_Layer/Interrupt/mcal_external_interrupt.c"
  4384 ;; Parameters:    Size  Location     Type
  4385 ;;		None
  4386 ;; Auto vars:     Size  Location     Type
  4387 ;;		None
  4388 ;; Return value:  Size  Location     Type
  4389 ;;                  1    wreg      void 
  4390 ;; Registers used:
  4391 ;;		None
  4392 ;; Tracked objects:
  4393 ;;		On entry : 0/0
  4394 ;;		On exit  : 0/0
  4395 ;;		Unchanged: 0/0
  4396 ;; Data sizes:     COMRAM   BANK0   BANK1   BANK2   BANK3   BANK4   BANK5   BANK6   BANK7   BANK8   BANK9  BANK10  BANK1
      +1  BANK12  BANK13  BANK14  BANK15
  4397 ;;      Params:         0       0       0       0       0       0       0       0       0       0       0       0       
      +0       0       0       0       0
  4398 ;;      Locals:         0       0       0       0       0       0       0       0       0       0       0       0       
      +0       0       0       0       0
  4399 ;;      Temps:          0       0       0       0       0       0       0       0       0       0       0       0       
      +0       0       0       0       0
  4400 ;;      Totals:         0       0       0       0       0       0       0       0       0       0       0       0       
      +0       0       0       0       0
  4401 ;;Total ram usage:        0 bytes
  4402 ;; Hardware stack levels used: 1
  4403 ;; This function calls:
  4404 ;;		Nothing
  4405 ;; This function is called by:
  4406 ;;		_InterruptManager
  4407 ;; This function uses a non-reentrant model
  4408 ;;
  4409                           
  4410                           	psect	text34
  4411   0020A6                     __ptext34:
  4412                           	callstack 0
  4413   0020A6                     _INT1_ISR:
  4414                           	callstack 23
  4415   0020A6                     
  4416                           ;MCAL_Layer/Interrupt/mcal_external_interrupt.c: 205:     (INTCON3bits.INT1IF = 0);
  4417   0020A6  90F0               	bcf	240,0,c	;volatile
  4418   0020A8  0012               	return		;funcret
  4419   0020AA                     __end_of_INT1_ISR:
  4420                           	callstack 0
  4421                           
  4422 ;; *************** function _INT0_ISR *****************
  4423 ;; Defined at:
  4424 ;;		line 193 in file "MCAL_Layer/Interrupt/mcal_external_interrupt.c"
  4425 ;; Parameters:    Size  Location     Type
  4426 ;;		None
  4427 ;; Auto vars:     Size  Location     Type
  4428 ;;		None
  4429 ;; Return value:  Size  Location     Type
  4430 ;;                  1    wreg      void 
  4431 ;; Registers used:
  4432 ;;		None
  4433 ;; Tracked objects:
  4434 ;;		On entry : 0/0
  4435 ;;		On exit  : 0/0
  4436 ;;		Unchanged: 0/0
  4437 ;; Data sizes:     COMRAM   BANK0   BANK1   BANK2   BANK3   BANK4   BANK5   BANK6   BANK7   BANK8   BANK9  BANK10  BANK1
      +1  BANK12  BANK13  BANK14  BANK15
  4438 ;;      Params:         0       0       0       0       0       0       0       0       0       0       0       0       
      +0       0       0       0       0
  4439 ;;      Locals:         0       0       0       0       0       0       0       0       0       0       0       0       
      +0       0       0       0       0
  4440 ;;      Temps:          0       0       0       0       0       0       0       0       0       0       0       0       
      +0       0       0       0       0
  4441 ;;      Totals:         0       0       0       0       0       0       0       0       0       0       0       0       
      +0       0       0       0       0
  4442 ;;Total ram usage:        0 bytes
  4443 ;; Hardware stack levels used: 1
  4444 ;; This function calls:
  4445 ;;		Nothing
  4446 ;; This function is called by:
  4447 ;;		_InterruptManager
  4448 ;; This function uses a non-reentrant model
  4449 ;;
  4450                           
  4451                           	psect	text35
  4452   0020AA                     __ptext35:
  4453                           	callstack 0
  4454   0020AA                     _INT0_ISR:
  4455                           	callstack 23
  4456   0020AA                     
  4457                           ;MCAL_Layer/Interrupt/mcal_external_interrupt.c: 195:     (INTCONbits.INT0IF = 0);
  4458   0020AA  92F2               	bcf	242,1,c	;volatile
  4459   0020AC  0012               	return		;funcret
  4460   0020AE                     __end_of_INT0_ISR:
  4461                           	callstack 0
  4462                           
  4463 ;; *************** function _CCP2_ISR *****************
  4464 ;; Defined at:
  4465 ;;		line 401 in file "MCAL_Layer/CCP/hal_ccp.c"
  4466 ;; Parameters:    Size  Location     Type
  4467 ;;		None
  4468 ;; Auto vars:     Size  Location     Type
  4469 ;;		None
  4470 ;; Return value:  Size  Location     Type
  4471 ;;                  1    wreg      void 
  4472 ;; Registers used:
  4473 ;;		None
  4474 ;; Tracked objects:
  4475 ;;		On entry : 0/0
  4476 ;;		On exit  : 0/0
  4477 ;;		Unchanged: 0/0
  4478 ;; Data sizes:     COMRAM   BANK0   BANK1   BANK2   BANK3   BANK4   BANK5   BANK6   BANK7   BANK8   BANK9  BANK10  BANK1
      +1  BANK12  BANK13  BANK14  BANK15
  4479 ;;      Params:         0       0       0       0       0       0       0       0       0       0       0       0       
      +0       0       0       0       0
  4480 ;;      Locals:         0       0       0       0       0       0       0       0       0       0       0       0       
      +0       0       0       0       0
  4481 ;;      Temps:          0       0       0       0       0       0       0       0       0       0       0       0       
      +0       0       0       0       0
  4482 ;;      Totals:         0       0       0       0       0       0       0       0       0       0       0       0       
      +0       0       0       0       0
  4483 ;;Total ram usage:        0 bytes
  4484 ;; Hardware stack levels used: 1
  4485 ;; This function calls:
  4486 ;;		Nothing
  4487 ;; This function is called by:
  4488 ;;		_InterruptManager
  4489 ;; This function uses a non-reentrant model
  4490 ;;
  4491                           
  4492                           	psect	text36
  4493   0020AE                     __ptext36:
  4494                           	callstack 0
  4495   0020AE                     _CCP2_ISR:
  4496                           	callstack 23
  4497   0020AE                     
  4498                           ;MCAL_Layer/CCP/hal_ccp.c: 403:     (PIR2bits.CCP2IF = 0);
  4499   0020AE  90A1               	bcf	161,0,c	;volatile
  4500   0020B0  0012               	return		;funcret
  4501   0020B2                     __end_of_CCP2_ISR:
  4502                           	callstack 0
  4503                           
  4504 ;; *************** function _CCP1_ISR *****************
  4505 ;; Defined at:
  4506 ;;		line 388 in file "MCAL_Layer/CCP/hal_ccp.c"
  4507 ;; Parameters:    Size  Location     Type
  4508 ;;		None
  4509 ;; Auto vars:     Size  Location     Type
  4510 ;;		None
  4511 ;; Return value:  Size  Location     Type
  4512 ;;                  1    wreg      void 
  4513 ;; Registers used:
  4514 ;;		None
  4515 ;; Tracked objects:
  4516 ;;		On entry : 0/0
  4517 ;;		On exit  : 0/0
  4518 ;;		Unchanged: 0/0
  4519 ;; Data sizes:     COMRAM   BANK0   BANK1   BANK2   BANK3   BANK4   BANK5   BANK6   BANK7   BANK8   BANK9  BANK10  BANK1
      +1  BANK12  BANK13  BANK14  BANK15
  4520 ;;      Params:         0       0       0       0       0       0       0       0       0       0       0       0       
      +0       0       0       0       0
  4521 ;;      Locals:         0       0       0       0       0       0       0       0       0       0       0       0       
      +0       0       0       0       0
  4522 ;;      Temps:          0       0       0       0       0       0       0       0       0       0       0       0       
      +0       0       0       0       0
  4523 ;;      Totals:         0       0       0       0       0       0       0       0       0       0       0       0       
      +0       0       0       0       0
  4524 ;;Total ram usage:        0 bytes
  4525 ;; Hardware stack levels used: 1
  4526 ;; This function calls:
  4527 ;;		Nothing
  4528 ;; This function is called by:
  4529 ;;		_InterruptManager
  4530 ;; This function uses a non-reentrant model
  4531 ;;
  4532                           
  4533                           	psect	text37
  4534   0020B2                     __ptext37:
  4535                           	callstack 0
  4536   0020B2                     _CCP1_ISR:
  4537                           	callstack 23
  4538   0020B2                     
  4539                           ;MCAL_Layer/CCP/hal_ccp.c: 390:     (PIR1bits.CCP1IF = 0);
  4540   0020B2  949E               	bcf	158,2,c	;volatile
  4541   0020B4  0012               	return		;funcret
  4542   0020B6                     __end_of_CCP1_ISR:
  4543                           	callstack 0
  4544                           
  4545 ;; *************** function _ADC_ISR *****************
  4546 ;; Defined at:
  4547 ;;		line 341 in file "MCAL_Layer/ADC/hal_adc.c"
  4548 ;; Parameters:    Size  Location     Type
  4549 ;;		None
  4550 ;; Auto vars:     Size  Location     Type
  4551 ;;		None
  4552 ;; Return value:  Size  Location     Type
  4553 ;;                  1    wreg      void 
  4554 ;; Registers used:
  4555 ;;		None
  4556 ;; Tracked objects:
  4557 ;;		On entry : 0/0
  4558 ;;		On exit  : 0/0
  4559 ;;		Unchanged: 0/0
  4560 ;; Data sizes:     COMRAM   BANK0   BANK1   BANK2   BANK3   BANK4   BANK5   BANK6   BANK7   BANK8   BANK9  BANK10  BANK1
      +1  BANK12  BANK13  BANK14  BANK15
  4561 ;;      Params:         0       0       0       0       0       0       0       0       0       0       0       0       
      +0       0       0       0       0
  4562 ;;      Locals:         0       0       0       0       0       0       0       0       0       0       0       0       
      +0       0       0       0       0
  4563 ;;      Temps:          0       0       0       0       0       0       0       0       0       0       0       0       
      +0       0       0       0       0
  4564 ;;      Totals:         0       0       0       0       0       0       0       0       0       0       0       0       
      +0       0       0       0       0
  4565 ;;Total ram usage:        0 bytes
  4566 ;; Hardware stack levels used: 1
  4567 ;; This function calls:
  4568 ;;		Nothing
  4569 ;; This function is called by:
  4570 ;;		_InterruptManager
  4571 ;; This function uses a non-reentrant model
  4572 ;;
  4573                           
  4574                           	psect	text38
  4575   0020B6                     __ptext38:
  4576                           	callstack 0
  4577   0020B6                     _ADC_ISR:
  4578                           	callstack 23
  4579   0020B6                     
  4580                           ;MCAL_Layer/ADC/hal_adc.c: 343:     (PIR1bits.ADIF = 0);
  4581   0020B6  9C9E               	bcf	158,6,c	;volatile
  4582   0020B8  0012               	return		;funcret
  4583   0020BA                     __end_of_ADC_ISR:
  4584                           	callstack 0
  4585                           
  4586                           	psect	text39
  4587   000000                     __ptext39:
  4588                           	callstack 0
  4589   000000                     
  4590                           	psect	rparam
  4591   000000                     
  4592                           	psect	temp
  4593   00006E                     btemp:
  4594                           	callstack 0
  4595   00006E                     	ds	1
  4596   000000                     int$flags	set	btemp
  4597   000000                     wtemp8	set	btemp+1
  4598   000000                     ttemp5	set	btemp+1
  4599   000000                     ttemp6	set	btemp+4
  4600   000000                     ttemp7	set	btemp+8
  4601                           
  4602                           	psect	idloc
  4603                           
  4604                           ;Config register IDLOC0 @ 0x200000
  4605                           ;	unspecified, using default values
  4606   200000                     	org	2097152
  4607   200000  FF                 	db	255
  4608                           
  4609                           ;Config register IDLOC1 @ 0x200001
  4610                           ;	unspecified, using default values
  4611   200001                     	org	2097153
  4612   200001  FF                 	db	255
  4613                           
  4614                           ;Config register IDLOC2 @ 0x200002
  4615                           ;	unspecified, using default values
  4616   200002                     	org	2097154
  4617   200002  FF                 	db	255
  4618                           
  4619                           ;Config register IDLOC3 @ 0x200003
  4620                           ;	unspecified, using default values
  4621   200003                     	org	2097155
  4622   200003  FF                 	db	255
  4623                           
  4624                           ;Config register IDLOC4 @ 0x200004
  4625                           ;	unspecified, using default values
  4626   200004                     	org	2097156
  4627   200004  FF                 	db	255
  4628                           
  4629                           ;Config register IDLOC5 @ 0x200005
  4630                           ;	unspecified, using default values
  4631   200005                     	org	2097157
  4632   200005  FF                 	db	255
  4633                           
  4634                           ;Config register IDLOC6 @ 0x200006
  4635                           ;	unspecified, using default values
  4636   200006                     	org	2097158
  4637   200006  FF                 	db	255
  4638                           
  4639                           ;Config register IDLOC7 @ 0x200007
  4640                           ;	unspecified, using default values
  4641   200007                     	org	2097159
  4642   200007  FF                 	db	255
  4643                           
  4644                           	psect	config
  4645                           
  4646                           ; Padding undefined space
  4647   300000                     	org	3145728
  4648   300000  FF                 	db	255
  4649                           
  4650                           ;Config register CONFIG1H @ 0x300001
  4651                           ;	Oscillator Selection bits
  4652                           ;	OSC = HS, HS oscillator
  4653                           ;	Fail-Safe Clock Monitor Enable bit
  4654                           ;	FCMEN = OFF, Fail-Safe Clock Monitor disabled
  4655                           ;	Internal/External Oscillator Switchover bit
  4656                           ;	IESO = OFF, Oscillator Switchover mode disabled
  4657   300001                     	org	3145729
  4658   300001  02                 	db	2
  4659                           
  4660                           ;Config register CONFIG2L @ 0x300002
  4661                           ;	Power-up Timer Enable bit
  4662                           ;	PWRT = OFF, PWRT disabled
  4663                           ;	Brown-out Reset Enable bits
  4664                           ;	BOREN = OFF, Brown-out Reset disabled in hardware and software
  4665                           ;	Brown Out Reset Voltage bits
  4666                           ;	BORV = 1, 
  4667   300002                     	org	3145730
  4668   300002  09                 	db	9
  4669                           
  4670                           ;Config register CONFIG2H @ 0x300003
  4671                           ;	Watchdog Timer Enable bit
  4672                           ;	WDT = OFF, WDT disabled (control is placed on the SWDTEN bit)
  4673                           ;	Watchdog Timer Postscale Select bits
  4674                           ;	WDTPS = 512, 1:512
  4675   300003                     	org	3145731
  4676   300003  12                 	db	18
  4677                           
  4678                           ; Padding undefined space
  4679   300004                     	org	3145732
  4680   300004  FF                 	db	255
  4681                           
  4682                           ;Config register CONFIG3H @ 0x300005
  4683                           ;	CCP2 MUX bit
  4684                           ;	CCP2MX = PORTC, CCP2 input/output is multiplexed with RC1
  4685                           ;	PORTB A/D Enable bit
  4686                           ;	PBADEN = OFF, PORTB<4:0> pins are configured as digital I/O on Reset
  4687                           ;	Low-Power Timer1 Oscillator Enable bit
  4688                           ;	LPT1OSC = OFF, Timer1 configured for higher power operation
  4689                           ;	MCLR Pin Enable bit
  4690                           ;	MCLRE = ON, MCLR pin enabled; RE3 input pin disabled
  4691   300005                     	org	3145733
  4692   300005  81                 	db	129
  4693                           
  4694                           ;Config register CONFIG4L @ 0x300006
  4695                           ;	Stack Full/Underflow Reset Enable bit
  4696                           ;	STVREN = ON, Stack full/underflow will cause Reset
  4697                           ;	Single-Supply ICSP Enable bit
  4698                           ;	LVP = OFF, Single-Supply ICSP disabled
  4699                           ;	Extended Instruction Set Enable bit
  4700                           ;	XINST = OFF, Instruction set extension and Indexed Addressing mode disabled (Legacy mo
      +                          de)
  4701                           ;	Background Debugger Enable bit
  4702                           ;	DEBUG = 0x1, unprogrammed default
  4703   300006                     	org	3145734
  4704   300006  81                 	db	129
  4705                           
  4706                           ; Padding undefined space
  4707   300007                     	org	3145735
  4708   300007  FF                 	db	255
  4709                           
  4710                           ;Config register CONFIG5L @ 0x300008
  4711                           ;	Code Protection bit
  4712                           ;	CP0 = OFF, Block 0 (000800-003FFFh) not code-protected
  4713                           ;	Code Protection bit
  4714                           ;	CP1 = OFF, Block 1 (004000-007FFFh) not code-protected
  4715                           ;	Code Protection bit
  4716                           ;	CP2 = OFF, Block 2 (008000-00BFFFh) not code-protected
  4717                           ;	Code Protection bit
  4718                           ;	CP3 = OFF, Block 3 (00C000-00FFFFh) not code-protected
  4719   300008                     	org	3145736
  4720   300008  0F                 	db	15
  4721                           
  4722                           ;Config register CONFIG5H @ 0x300009
  4723                           ;	Boot Block Code Protection bit
  4724                           ;	CPB = OFF, Boot block (000000-0007FFh) not code-protected
  4725                           ;	Data EEPROM Code Protection bit
  4726                           ;	CPD = OFF, Data EEPROM not code-protected
  4727   300009                     	org	3145737
  4728   300009  C0                 	db	192
  4729                           
  4730                           ;Config register CONFIG6L @ 0x30000A
  4731                           ;	Write Protection bit
  4732                           ;	WRT0 = OFF, Block 0 (000800-003FFFh) not write-protected
  4733                           ;	Write Protection bit
  4734                           ;	WRT1 = OFF, Block 1 (004000-007FFFh) not write-protected
  4735                           ;	Write Protection bit
  4736                           ;	WRT2 = OFF, Block 2 (008000-00BFFFh) not write-protected
  4737                           ;	Write Protection bit
  4738                           ;	WRT3 = OFF, Block 3 (00C000-00FFFFh) not write-protected
  4739   30000A                     	org	3145738
  4740   30000A  0F                 	db	15
  4741                           
  4742                           ;Config register CONFIG6H @ 0x30000B
  4743                           ;	Configuration Register Write Protection bit
  4744                           ;	WRTC = OFF, Configuration registers (300000-3000FFh) not write-protected
  4745                           ;	Boot Block Write Protection bit
  4746                           ;	WRTB = OFF, Boot Block (000000-0007FFh) not write-protected
  4747                           ;	Data EEPROM Write Protection bit
  4748                           ;	WRTD = OFF, Data EEPROM not write-protected
  4749   30000B                     	org	3145739
  4750   30000B  E0                 	db	224
  4751                           
  4752                           ;Config register CONFIG7L @ 0x30000C
  4753                           ;	Table Read Protection bit
  4754                           ;	EBTR0 = OFF, Block 0 (000800-003FFFh) not protected from table reads executed in other
      +                           blocks
  4755                           ;	Table Read Protection bit
  4756                           ;	EBTR1 = OFF, Block 1 (004000-007FFFh) not protected from table reads executed in other
      +                           blocks
  4757                           ;	Table Read Protection bit
  4758                           ;	EBTR2 = OFF, Block 2 (008000-00BFFFh) not protected from table reads executed in other
      +                           blocks
  4759                           ;	Table Read Protection bit
  4760                           ;	EBTR3 = OFF, Block 3 (00C000-00FFFFh) not protected from table reads executed in other
      +                           blocks
  4761   30000C                     	org	3145740
  4762   30000C  0F                 	db	15
  4763                           
  4764                           ;Config register CONFIG7H @ 0x30000D
  4765                           ;	Boot Block Table Read Protection bit
  4766                           ;	EBTRB = OFF, Boot Block (000000-0007FFh) not protected from table reads executed in ot
      +                          her blocks
  4767   30000D                     	org	3145741
  4768   30000D  40                 	db	64
  4769                           tosu	equ	0xFFF
  4770                           tosh	equ	0xFFE
  4771                           tosl	equ	0xFFD
  4772                           stkptr	equ	0xFFC
  4773                           pclatu	equ	0xFFB
  4774                           pclath	equ	0xFFA
  4775                           pcl	equ	0xFF9
  4776                           tblptru	equ	0xFF8
  4777                           tblptrh	equ	0xFF7
  4778                           tblptrl	equ	0xFF6
  4779                           tablat	equ	0xFF5
  4780                           prodh	equ	0xFF4
  4781                           prodl	equ	0xFF3
  4782                           indf0	equ	0xFEF
  4783                           postinc0	equ	0xFEE
  4784                           postdec0	equ	0xFED
  4785                           preinc0	equ	0xFEC
  4786                           plusw0	equ	0xFEB
  4787                           fsr0h	equ	0xFEA
  4788                           fsr0l	equ	0xFE9
  4789                           wreg	equ	0xFE8
  4790                           indf1	equ	0xFE7
  4791                           postinc1	equ	0xFE6
  4792                           postdec1	equ	0xFE5
  4793                           preinc1	equ	0xFE4
  4794                           plusw1	equ	0xFE3
  4795                           fsr1h	equ	0xFE2
  4796                           fsr1l	equ	0xFE1
  4797                           bsr	equ	0xFE0
  4798                           indf2	equ	0xFDF
  4799                           postinc2	equ	0xFDE
  4800                           postdec2	equ	0xFDD
  4801                           preinc2	equ	0xFDC
  4802                           plusw2	equ	0xFDB
  4803                           fsr2h	equ	0xFDA
  4804                           fsr2l	equ	0xFD9
  4805                           status	equ	0xFD8

Data Sizes:
    Strings     3
    Constant    16
    Data        51
    BSS         84
    Persistent  0
    Stack       0

Auto Spaces:
    Space          Size  Autos    Used
    COMRAM          126     30     109
    BANK0           128     15      71
    BANK1           256      0       0
    BANK2           256      0       0
    BANK3           256      0       0
    BANK4           256      0       0
    BANK5           256      0       0
    BANK6           256      0       0
    BANK7           256      0       0
    BANK8           256      0       0
    BANK9           256      0       0
    BANK10          256      0       0
    BANK11          256      0       0
    BANK12          256      0       0
    BANK13          256      0       0
    BANK14          256      0       0
    BANK15          128      0       0

Pointer List with Targets:

    vfprintf$2	PTR PTR void  size(2) Largest target is 2
		 -> sprintf@ap(COMRAM[2]), 

    vfprintf$1	PTR const unsigned char  size(2) Largest target is 3
		 -> STR_3(CODE[3]), STR_2(CODE[3]), STR_1(CODE[3]), 

    vfprintf$0	PTR struct _IO_FILE size(2) Largest target is 12
		 -> sprintf@f(COMRAM[12]), 

    CCP_PMW_MODE_CONFIG$0	PTR const struct . size(2) Largest target is 0

    S4548$source	PTR const unsigned char  size(2) Largest target is 0

    f...source	PTR const unsigned char  size(2) Largest target is 0

    S4548$buffer	PTR unsigned char  size(2) Largest target is 0

    f...buffer	PTR unsigned char  size(2) Largest target is 0

    timer_obj.TMR1_InterruptHandler	PTR FTN()void  size(2) Largest target is 1
		 -> Timer1_DefaultInterruptHandler(), NULL(NULL[0]), 

    counter_obj.TMR1_InterruptHandler	PTR FTN()void  size(2) Largest target is 1
		 -> Timer1_DefaultInterruptHandler(), NULL(NULL[0]), 

    USART_OverrunErrorHandler	PTR FTN()void  size(2) Largest target is 1
		 -> NULL(), 

    USART_FramingErrorHandler	PTR FTN()void  size(2) Largest target is 1
		 -> NULL(), 

    USART_RxDefaultInterruptHandler	PTR FTN()void  size(2) Largest target is 1
		 -> NULL(), 

    USART_ASYNCRONOUS_RX_Init@_usart.USART_OverrunErrorHandler	PTR FTN()void  size(2) Largest target is 0

    USART_ASYNCRONOUS_RX_Init@_usart.USART_FramingErrorHandler	PTR FTN()void  size(2) Largest target is 0

    USART_ASYNCRONOUS_RX_Init@_usart.USART_RxDefaultInterruptHandler	PTR FTN()void  size(2) Largest target is 0

    USART_ASYNCRONOUS_RX_Init@_usart.USART_TxDefaultInterruptHandler	PTR FTN()void  size(2) Largest target is 0

    USART_TxDefaultInterruptHandler	PTR FTN()void  size(2) Largest target is 1
		 -> NULL(), 

    USART_ASYNCRONOUS_TX_Init@_usart.USART_OverrunErrorHandler	PTR FTN()void  size(2) Largest target is 0

    USART_ASYNCRONOUS_TX_Init@_usart.USART_FramingErrorHandler	PTR FTN()void  size(2) Largest target is 0

    USART_ASYNCRONOUS_TX_Init@_usart.USART_RxDefaultInterruptHandler	PTR FTN()void  size(2) Largest target is 0

    USART_ASYNCRONOUS_TX_Init@_usart.USART_TxDefaultInterruptHandler	PTR FTN()void  size(2) Largest target is 0

    S3608$USART_OverrunErrorHandler	PTR FTN()void  size(2) Largest target is 0

    USART_Baud_Rate_Calculation@_usart.USART_OverrunErrorHandler	PTR FTN()void  size(2) Largest target is 0

    S3608$USART_FramingErrorHandler	PTR FTN()void  size(2) Largest target is 0

    USART_Baud_Rate_Calculation@_usart.USART_FramingErrorHandler	PTR FTN()void  size(2) Largest target is 0

    S3608$USART_RxDefaultInterruptHandler	PTR FTN()void  size(2) Largest target is 0

    USART_Baud_Rate_Calculation@_usart.USART_RxDefaultInterruptHandler	PTR FTN()void  size(2) Largest target is 0

    S3608$USART_TxDefaultInterruptHandler	PTR FTN()void  size(2) Largest target is 0

    USART_Baud_Rate_Calculation@_usart.USART_TxDefaultInterruptHandler	PTR FTN()void  size(2) Largest target is 0

    Timer3_Mode_Selection@_timer.TMR3_InterruptHandler	PTR FTN()void  size(2) Largest target is 0

    TMR3_InterruptHandler	PTR FTN()void  size(2) Largest target is 1
		 -> NULL(), 

    S3414$TMR3_InterruptHandler	PTR FTN()void  size(2) Largest target is 0

    Timer3_Init@_timer.TMR3_InterruptHandler	PTR FTN()void  size(2) Largest target is 0

    TMR2_InterruptHandler	PTR FTN()void  size(2) Largest target is 1
		 -> NULL(), 

    S3283$TMR2_InterruptHandler	PTR FTN()void  size(2) Largest target is 0

    Timer2_Init@_timer.TMR2_InterruptHandler	PTR FTN()void  size(2) Largest target is 0

    Timer1_Mode_Selection@_timer.TMR1_InterruptHandler	PTR FTN()void  size(2) Largest target is 1
		 -> Timer1_DefaultInterruptHandler(), NULL(NULL[0]), 

    Timer1_Mode_Selection@_timer	PTR const struct . size(2) Largest target is 6
		 -> counter_obj(COMRAM[6]), timer1_timer_init@timer_obj(COMRAM[6]), 

    Timer1_Read_Value@_value	PTR unsigned short  size(2) Largest target is 2
		 -> timer1_counter_val(COMRAM[2]), 

    Timer1_Read_Value@_timer	PTR const struct . size(2) Largest target is 6
		 -> counter_obj(COMRAM[6]), 

    TMR1_InterruptHandler	PTR FTN()void  size(2) Largest target is 1
		 -> Timer1_DefaultInterruptHandler(), NULL(), NULL(NULL[0]), 

    S3094$TMR1_InterruptHandler	PTR FTN()void  size(2) Largest target is 1
		 -> Timer1_DefaultInterruptHandler(), NULL(NULL[0]), 

    Timer1_Init@_timer.TMR1_InterruptHandler	PTR FTN()void  size(2) Largest target is 1
		 -> Timer1_DefaultInterruptHandler(), NULL(NULL[0]), 

    Timer1_Init@_timer	PTR const struct . size(2) Largest target is 6
		 -> counter_obj(COMRAM[6]), timer1_timer_init@timer_obj(COMRAM[6]), 

    Timer0_Reigster_Size_Config@_timer.TMR0_InterruptHandler	PTR FTN()void  size(2) Largest target is 0

    Timer0_Mode_Selection@_timer.TMR0_InterruptHandler	PTR FTN()void  size(2) Largest target is 0

    Timer0_Prescaler_Config@_timer.TMR0_InterruptHandler	PTR FTN()void  size(2) Largest target is 0

    TMR0_InterruptHandler	PTR FTN()void  size(2) Largest target is 1
		 -> NULL(), 

    S2929$TMR0_InterruptHandler	PTR FTN()void  size(2) Largest target is 0

    Timer0_Init@_timer.TMR0_InterruptHandler	PTR FTN()void  size(2) Largest target is 0

    Interrupt_INTx_SetInterruptHandler@int_obj.EXT_InterruptHandler	PTR FTN()void  size(2) Largest target is 0

    Interrupt_INTx_Clear_Flag@int_obj.EXT_InterruptHandler	PTR FTN()void  size(2) Largest target is 0

    Interrupt_INTx_Pin_Init@int_obj.EXT_InterruptHandler	PTR FTN()void  size(2) Largest target is 0

    Interrupt_INTx_Edge_Init@int_obj.EXT_InterruptHandler	PTR FTN()void  size(2) Largest target is 0

    Interrupt_INTx_Disable@int_obj.EXT_InterruptHandler	PTR FTN()void  size(2) Largest target is 0

    S2321$EXT_InterruptHandler	PTR FTN()void  size(2) Largest target is 0

    Interrupt_INTx_Enable@int_obj.EXT_InterruptHandler	PTR FTN()void  size(2) Largest target is 0

    S2437$EXT_InterruptHandler_LOW	PTR FTN()void  size(2) Largest target is 0

    Interrupt_RBx_Init@int_obj.EXT_InterruptHandler_LOW	PTR FTN()void  size(2) Largest target is 0

    S2437$EXT_InterruptHandler_HIGH	PTR FTN()void  size(2) Largest target is 0

    Interrupt_RBx_Init@int_obj.EXT_InterruptHandler_HIGH	PTR FTN()void  size(2) Largest target is 0

    RB7_InterruptHandler_LOW	PTR FTN()void  size(2) Largest target is 1
		 -> NULL(), 

    RB7_InterruptHandler_HIGH	PTR FTN()void  size(2) Largest target is 1
		 -> NULL(), 

    RB6_InterruptHandler_LOW	PTR FTN()void  size(2) Largest target is 1
		 -> NULL(), 

    RB6_InterruptHandler_HIGH	PTR FTN()void  size(2) Largest target is 1
		 -> NULL(), 

    RB5_InterruptHandler_LOW	PTR FTN()void  size(2) Largest target is 1
		 -> NULL(), 

    RB5_InterruptHandler_HIGH	PTR FTN()void  size(2) Largest target is 1
		 -> NULL(), 

    RB4_InterruptHandler_LOW	PTR FTN()void  size(2) Largest target is 1
		 -> NULL(), 

    RB4_InterruptHandler_HIGH	PTR FTN()void  size(2) Largest target is 1
		 -> NULL(), 

    INT2_InterruptHandler	PTR FTN()void  size(2) Largest target is 1
		 -> NULL(), 

    INT1_InterruptHandler	PTR FTN()void  size(2) Largest target is 1
		 -> NULL(), 

    INT0_InterruptHandler	PTR FTN()void  size(2) Largest target is 1
		 -> NULL(), 

    MSSP_I2C_Bus_Collision_Interrupt_Configurations@_i2c.MSSP_I2C_Report_Receive_Overflow	PTR FTN()void  size(2) Largest target is 0

    MSSP_I2C_Bus_Collision_Interrupt_Configurations@_i2c.MSSP_I2C_Report_Write_Collision	PTR FTN()void  size(2) Largest target is 0

    MSSP_I2C_Bus_Collision_Interrupt_Configurations@_i2c.MSSP_I2C_DefaultInterruptHandler	PTR FTN()void  size(2) Largest target is 0

    MSSP_I2C_Interrupt_Configurations@_i2c.MSSP_I2C_Report_Receive_Overflow	PTR FTN()void  size(2) Largest target is 0

    MSSP_I2C_Interrupt_Configurations@_i2c.MSSP_I2C_Report_Write_Collision	PTR FTN()void  size(2) Largest target is 0

    MSSP_I2C_Interrupt_Configurations@_i2c.MSSP_I2C_DefaultInterruptHandler	PTR FTN()void  size(2) Largest target is 0

    MSSP_I2C_Report_Receive_Overflow_InterruptHandler	PTR FTN()void  size(2) Largest target is 1
		 -> NULL(), 

    MSSP_I2C_Slave_Mode_Configurations@_i2c.MSSP_I2C_Report_Receive_Overflow	PTR FTN()void  size(2) Largest target is 0

    MSSP_I2C_Slave_Mode_Configurations@_i2c.MSSP_I2C_Report_Write_Collision	PTR FTN()void  size(2) Largest target is 0

    MSSP_I2C_Slave_Mode_Configurations@_i2c.MSSP_I2C_DefaultInterruptHandler	PTR FTN()void  size(2) Largest target is 0

    MSSP_I2C_Master_Mode_Clock_Configurations@_i2c.MSSP_I2C_Report_Receive_Overflow	PTR FTN()void  size(2) Largest target is 0

    MSSP_I2C_Master_Mode_Clock_Configurations@_i2c.MSSP_I2C_Report_Write_Collision	PTR FTN()void  size(2) Largest target is 0

    MSSP_I2C_Master_Mode_Clock_Configurations@_i2c.MSSP_I2C_DefaultInterruptHandler	PTR FTN()void  size(2) Largest target is 0

    MSSP_I2C_Report_Write_Collision_InterruptHandler	PTR FTN()void  size(2) Largest target is 1
		 -> NULL(), 

    MSSP_I2C_DefaultInterruptHandler	PTR FTN()void  size(2) Largest target is 1
		 -> NULL(), 

    S1796$MSSP_I2C_Report_Receive_Overflow	PTR FTN()void  size(2) Largest target is 0

    MSSP_I2C_Initialize@_i2c.MSSP_I2C_Report_Receive_Overflow	PTR FTN()void  size(2) Largest target is 0

    S1796$MSSP_I2C_Report_Write_Collision	PTR FTN()void  size(2) Largest target is 0

    MSSP_I2C_Initialize@_i2c.MSSP_I2C_Report_Write_Collision	PTR FTN()void  size(2) Largest target is 0

    S1796$MSSP_I2C_DefaultInterruptHandler	PTR FTN()void  size(2) Largest target is 0

    MSSP_I2C_Initialize@_i2c.MSSP_I2C_DefaultInterruptHandler	PTR FTN()void  size(2) Largest target is 0

    gpio_pin_intialize@_pin_config	PTR const struct . size(2) Largest target is 10
		 -> lcd_2.lcd_data(BANK0[8]), lcd_2(BANK0[10]), lcd_1.lcd_data(BANK0[4]), lcd_1(BANK0[6]), 
		 -> relay_initialize@pin_obj(COMRAM[1]), led_initialize@pin_obj(BANK0[1]), 

    gpio_pin_toggle_logic@_pin_config	PTR const struct . size(2) Largest target is 1
		 -> led_turn_toggle@pin_obj(COMRAM[1]), 

    gpio_pin_write_logic@_pin_config	PTR const struct . size(2) Largest target is 10
		 -> lcd_2.lcd_data(BANK0[8]), lcd_2(BANK0[10]), lcd_1.lcd_data(BANK0[4]), lcd_1(BANK0[6]), 
		 -> relay_turn_off@pin_obj(COMRAM[1]), relay_turn_on@pin_obj(COMRAM[1]), relay_initialize@pin_obj(COMRAM[1]), led_turn_off@pin_obj(COMRAM[1]), 
		 -> led_turn_on@pin_obj(COMRAM[1]), led_initialize@pin_obj(BANK0[1]), 

    gpio_pin_direction_intialize@_pin_config	PTR const struct . size(2) Largest target is 10
		 -> lcd_2.lcd_data(BANK0[8]), lcd_2(BANK0[10]), lcd_1.lcd_data(BANK0[4]), lcd_1(BANK0[6]), 
		 -> relay_initialize@pin_obj(COMRAM[1]), led_initialize@pin_obj(BANK0[1]), 

    port_registers	PTR volatile unsigned char [5] size(2) Largest target is 1
		 -> PORTE(BITBIGSFRlllll[1]), PORTD(BITBIGSFRlllll[1]), PORTC(BITBIGSFRlllll[1]), PORTB(BITBIGSFRlllll[1]), 
		 -> PORTA(BITBIGSFRlllll[1]), 

    lat_registers	PTR volatile unsigned char [5] size(2) Largest target is 1
		 -> LATE(BITBIGSFRllllh[1]), LATD(BITBIGSFRllllh[1]), LATC(BITBIGSFRllllh[1]), LATB(BITBIGSFRllllh[1]), 
		 -> LATA(BITBIGSFRlllll[1]), 

    tris_registers	PTR volatile unsigned char [5] size(2) Largest target is 1
		 -> TRISD(ABS[1]), TRISC(ABS[1]), TRISB(ABS[1]), TRISE(ABS[1]), 
		 -> TRISA(BITBIGSFRlllll[1]), 

    CCP_Compare_Mode_Config@_ccp_obj.CCP2_InterruptHandler	PTR FTN()void  size(2) Largest target is 0

    CCP_Compare_Mode_Config@_ccp_obj.CCP1_InterruptHandler	PTR FTN()void  size(2) Largest target is 0

    CCP_Capture_Mode_Config@_ccp_obj.CCP2_InterruptHandler	PTR FTN()void  size(2) Largest target is 0

    CCP_Capture_Mode_Config@_ccp_obj.CCP1_InterruptHandler	PTR FTN()void  size(2) Largest target is 0

    CCP_Mode_Timer_Selection@_ccp_obj.CCP2_InterruptHandler	PTR FTN()void  size(2) Largest target is 0

    CCP_Mode_Timer_Selection@_ccp_obj.CCP1_InterruptHandler	PTR FTN()void  size(2) Largest target is 0

    CCP_Interrupt_Config@_ccp_obj.CCP2_InterruptHandler	PTR FTN()void  size(2) Largest target is 0

    CCP_Interrupt_Config@_ccp_obj.CCP1_InterruptHandler	PTR FTN()void  size(2) Largest target is 0

    CCP2_InterruptHandler	PTR FTN()void  size(2) Largest target is 1
		 -> NULL(), 

    CCP1_InterruptHandler	PTR FTN()void  size(2) Largest target is 1
		 -> NULL(), 

    CCP_Set_Compare_Mode_Value@_ccp_obj.CCP2_InterruptHandler	PTR FTN()void  size(2) Largest target is 0

    CCP_Set_Compare_Mode_Value@_ccp_obj.CCP1_InterruptHandler	PTR FTN()void  size(2) Largest target is 0

    CCP_DeInit@_ccp_obj.CCP2_InterruptHandler	PTR FTN()void  size(2) Largest target is 0

    CCP_DeInit@_ccp_obj.CCP1_InterruptHandler	PTR FTN()void  size(2) Largest target is 0

    S1142$CCP2_InterruptHandler	PTR FTN()void  size(2) Largest target is 0

    CCP_Init@_ccp_obj.CCP2_InterruptHandler	PTR FTN()void  size(2) Largest target is 0

    S1142$CCP1_InterruptHandler	PTR FTN()void  size(2) Largest target is 0

    CCP_Init@_ccp_obj.CCP1_InterruptHandler	PTR FTN()void  size(2) Largest target is 0

    configure_voltage_reference@_adc.ADC_InterruptHandler	PTR FTN()void  size(2) Largest target is 0

    select_result_format@_adc.ADC_InterruptHandler	PTR FTN()void  size(2) Largest target is 0

    ADC_GetConversionResult@_adc.ADC_InterruptHandler	PTR FTN()void  size(2) Largest target is 0

    ADC_InterruptHandler	PTR FTN()void  size(2) Largest target is 1
		 -> NULL(), 

    S723$ADC_InterruptHandler	PTR FTN()void  size(2) Largest target is 0

    ADC_Init@_adc.ADC_InterruptHandler	PTR FTN()void  size(2) Largest target is 0

    led_turn_toggle@led	PTR const struct . size(2) Largest target is 1
		 -> led1(COMRAM[1]), 

    led_initialize@led	PTR const struct . size(2) Largest target is 1
		 -> led1(COMRAM[1]), 

    lcd_8bit_send_enable_signal@lcd	PTR const struct . size(2) Largest target is 10
		 -> lcd_2(BANK0[10]), 

    lcd_4bit_send_enable_signal@lcd	PTR const struct . size(2) Largest target is 6
		 -> lcd_1(BANK0[6]), 

    lcd_send_4bits@lcd	PTR const struct . size(2) Largest target is 6
		 -> lcd_1(BANK0[6]), 

    sp__memset	PTR void  size(2) Largest target is 0

    lcd_8bit_send_command@lcd	PTR const struct . size(2) Largest target is 10
		 -> lcd_2(BANK0[10]), 

    lcd_8bit_intialize@lcd	PTR const struct . size(2) Largest target is 10
		 -> lcd_2(BANK0[10]), 

    lcd_4bit_send_command@lcd	PTR const struct . size(2) Largest target is 6
		 -> lcd_1(BANK0[6]), 

    lcd_4bit_intialize@lcd	PTR const struct . size(2) Largest target is 6
		 -> lcd_1(BANK0[6]), 


Critical Paths under _main in COMRAM

    _led_initialize->_gpio_pin_intialize
    _lcd_8bit_intialize->_gpio_pin_intialize
    _lcd_8bit_send_command->_lcd_8bit_send_enable_signal
    _lcd_8bit_send_enable_signal->_gpio_pin_write_logic
    _lcd_4bit_intialize->_gpio_pin_intialize
    _lcd_4bit_send_command->_lcd_4bit_send_enable_signal
    _lcd_4bit_send_command->_lcd_send_4bits
    _lcd_send_4bits->_gpio_pin_write_logic
    _lcd_4bit_send_enable_signal->_gpio_pin_write_logic
    _gpio_pin_intialize->_gpio_pin_write_logic
    _Timer1_Init->_Timer1_Mode_Selection

Critical Paths under _InterruptManager in COMRAM

    _Timer1_DefaultInterruptHandler->_led_turn_toggle
    _led_turn_toggle->_gpio_pin_toggle_logic

Critical Paths under _main in BANK0

    _led_initialize->_gpio_pin_intialize
    _ecu_layer_intialize->_lcd_8bit_intialize
    _lcd_8bit_intialize->_lcd_8bit_send_command
    _lcd_4bit_intialize->_lcd_4bit_send_command
    _lcd_4bit_send_command->_lcd_send_4bits

Critical Paths under _InterruptManager in BANK0

    None.

Critical Paths under _main in BANK1

    None.

Critical Paths under _InterruptManager in BANK1

    None.

Critical Paths under _main in BANK2

    None.

Critical Paths under _InterruptManager in BANK2

    None.

Critical Paths under _main in BANK3

    None.

Critical Paths under _InterruptManager in BANK3

    None.

Critical Paths under _main in BANK4

    None.

Critical Paths under _InterruptManager in BANK4

    None.

Critical Paths under _main in BANK5

    None.

Critical Paths under _InterruptManager in BANK5

    None.

Critical Paths under _main in BANK6

    None.

Critical Paths under _InterruptManager in BANK6

    None.

Critical Paths under _main in BANK7

    None.

Critical Paths under _InterruptManager in BANK7

    None.

Critical Paths under _main in BANK8

    None.

Critical Paths under _InterruptManager in BANK8

    None.

Critical Paths under _main in BANK9

    None.

Critical Paths under _InterruptManager in BANK9

    None.

Critical Paths under _main in BANK10

    None.

Critical Paths under _InterruptManager in BANK10

    None.

Critical Paths under _main in BANK11

    None.

Critical Paths under _InterruptManager in BANK11

    None.

Critical Paths under _main in BANK12

    None.

Critical Paths under _InterruptManager in BANK12

    None.

Critical Paths under _main in BANK13

    None.

Critical Paths under _InterruptManager in BANK13

    None.

Critical Paths under _main in BANK14

    None.

Critical Paths under _InterruptManager in BANK14

    None.

Critical Paths under _main in BANK15

    None.

Critical Paths under _InterruptManager in BANK15

    None.

Call Graph Tables:

 ---------------------------------------------------------------------------------
 (Depth) Function   	        Calls       Base Space   Used Autos Params    Refs
 ---------------------------------------------------------------------------------
 (0) _main                                                 1     1      0   63645
                        _Timer1_Init
                  _Timer1_Read_Value
              _application_intialize
                     _led_initialize
 ---------------------------------------------------------------------------------
 (1) _led_initialize                                       5     3      2    8518
                                              1 BANK0      5     3      2
                 _gpio_pin_intialize
 ---------------------------------------------------------------------------------
 (1) _application_intialize                                1     1      0   54329
                _ecu_layer_intialize
 ---------------------------------------------------------------------------------
 (2) _ecu_layer_intialize                                  1     1      0   54326
                 _lcd_4bit_intialize
                 _lcd_8bit_intialize
 ---------------------------------------------------------------------------------
 (3) _lcd_8bit_intialize                                   6     4      2   23660
                                              9 BANK0      6     4      2
                 _gpio_pin_intialize
              _lcd_8bit_send_command
 ---------------------------------------------------------------------------------
 (4) _lcd_8bit_send_command                                9     6      3   14810
                                              0 BANK0      9     6      3
               _gpio_pin_write_logic
        _lcd_8bit_send_enable_signal
 ---------------------------------------------------------------------------------
 (5) _lcd_8bit_send_enable_signal                          3     1      2    6119
                                             27 COMRAM     3     1      2
               _gpio_pin_write_logic
 ---------------------------------------------------------------------------------
 (3) _lcd_4bit_intialize                                   6     4      2   30657
                                              5 BANK0      6     4      2
                 _gpio_pin_intialize
              _lcd_4bit_send_command
 ---------------------------------------------------------------------------------
 (4) _lcd_4bit_send_command                                4     1      3   21807
                                              1 BANK0      4     1      3
               _gpio_pin_write_logic
        _lcd_4bit_send_enable_signal
                     _lcd_send_4bits
 ---------------------------------------------------------------------------------
 (5) _lcd_send_4bits                                       4     1      3    6851
                                             27 COMRAM     3     0      3
                                              0 BANK0      1     1      0
               _gpio_pin_write_logic
 ---------------------------------------------------------------------------------
 (5) _lcd_4bit_send_enable_signal                          3     1      2    6299
                                             27 COMRAM     3     1      2
               _gpio_pin_write_logic
 ---------------------------------------------------------------------------------
 (2) _gpio_pin_intialize                                   4     2      2    8182
                                             27 COMRAM     3     1      2
                                              0 BANK0      1     1      0
       _gpio_pin_direction_intialize
               _gpio_pin_write_logic
 ---------------------------------------------------------------------------------
 (3) _gpio_pin_write_logic                                10     7      3    5837
                                             17 COMRAM    10     7      3
 ---------------------------------------------------------------------------------
 (3) _gpio_pin_direction_intialize                         9     7      2     707
                                             17 COMRAM     9     7      2
 ---------------------------------------------------------------------------------
 (1) _Timer1_Read_Value                                    9     5      4     291
                                             17 COMRAM     9     5      4
 ---------------------------------------------------------------------------------
 (1) _Timer1_Init                                          5     3      2     495
                                             19 COMRAM     5     3      2
              _Timer1_Mode_Selection
 ---------------------------------------------------------------------------------
 (2) _Timer1_Mode_Selection                                2     0      2     164
                                             17 COMRAM     2     0      2
 ---------------------------------------------------------------------------------
 Estimated maximum stack depth 5
 ---------------------------------------------------------------------------------
 (Depth) Function   	        Calls       Base Space   Used Autos Params    Refs
 ---------------------------------------------------------------------------------
 (7) _InterruptManager                                     6     6      0     494
                                             11 COMRAM     6     6      0
                            _ADC_ISR
                           _CCP1_ISR
                           _CCP2_ISR
                           _INT0_ISR
                           _INT1_ISR
                           _INT2_ISR
                    _MSSP_I2C_BC_ISR
                       _MSSP_I2C_ISR
                            _RB4_ISR
                            _RB5_ISR
                            _RB6_ISR
                            _RB7_ISR
                           _TMR0_ISR
                           _TMR1_ISR
                           _TMR2_ISR
                           _TMR3_ISR
                       _USART_RX_ISR
                       _USART_TX_ISR
 ---------------------------------------------------------------------------------
 (8) _USART_TX_ISR                                         0     0      0       0
 ---------------------------------------------------------------------------------
 (8) _USART_RX_ISR                                         0     0      0       0
 ---------------------------------------------------------------------------------
 (8) _TMR3_ISR                                             0     0      0       0
 ---------------------------------------------------------------------------------
 (8) _TMR2_ISR                                             0     0      0       0
 ---------------------------------------------------------------------------------
 (8) _TMR1_ISR                                             0     0      0     374
                                NULL *
     _Timer1_DefaultInterruptHandler *
 ---------------------------------------------------------------------------------
 (9) _Timer1_DefaultInterruptHandler                       0     0      0     374
                    _led_turn_toggle
 ---------------------------------------------------------------------------------
 (10) _led_turn_toggle                                     5     3      2     374
                                              7 COMRAM     4     2      2
              _gpio_pin_toggle_logic
 ---------------------------------------------------------------------------------
 (11) _gpio_pin_toggle_logic                               8     6      2     172
                                              0 COMRAM     7     5      2
 ---------------------------------------------------------------------------------
 (9) NULL(Fake)                                            0     0      0       0
 ---------------------------------------------------------------------------------
 (8) _TMR0_ISR                                             0     0      0       0
 ---------------------------------------------------------------------------------
 (8) _RB7_ISR                                              1     1      0      30
                                              0 COMRAM     1     1      0
 ---------------------------------------------------------------------------------
 (8) _RB6_ISR                                              1     1      0      30
                                              0 COMRAM     1     1      0
 ---------------------------------------------------------------------------------
 (8) _RB5_ISR                                              1     1      0      30
                                              0 COMRAM     1     1      0
 ---------------------------------------------------------------------------------
 (8) _RB4_ISR                                              1     1      0      30
                                              0 COMRAM     1     1      0
 ---------------------------------------------------------------------------------
 (8) _MSSP_I2C_ISR                                         0     0      0       0
 ---------------------------------------------------------------------------------
 (8) _MSSP_I2C_BC_ISR                                      0     0      0       0
 ---------------------------------------------------------------------------------
 (8) _INT2_ISR                                             0     0      0       0
 ---------------------------------------------------------------------------------
 (8) _INT1_ISR                                             0     0      0       0
 ---------------------------------------------------------------------------------
 (8) _INT0_ISR                                             0     0      0       0
 ---------------------------------------------------------------------------------
 (8) _CCP2_ISR                                             0     0      0       0
 ---------------------------------------------------------------------------------
 (8) _CCP1_ISR                                             0     0      0       0
 ---------------------------------------------------------------------------------
 (8) _ADC_ISR                                              0     0      0       0
 ---------------------------------------------------------------------------------
 Estimated maximum stack depth 11
 ---------------------------------------------------------------------------------

 Call Graph Graphs:

 _main (ROOT)
   _Timer1_Init
     _Timer1_Mode_Selection
   _Timer1_Read_Value
   _application_intialize
     _ecu_layer_intialize
       _lcd_4bit_intialize
         _gpio_pin_intialize
           _gpio_pin_direction_intialize
           _gpio_pin_write_logic
         _lcd_4bit_send_command
           _gpio_pin_write_logic
           _lcd_4bit_send_enable_signal
             _gpio_pin_write_logic
           _lcd_send_4bits
             _gpio_pin_write_logic
       _lcd_8bit_intialize
         _gpio_pin_intialize
         _lcd_8bit_send_command
           _gpio_pin_write_logic
           _lcd_8bit_send_enable_signal
             _gpio_pin_write_logic
   _led_initialize
     _gpio_pin_intialize

 _InterruptManager (ROOT)
   _ADC_ISR
   _CCP1_ISR
   _CCP2_ISR
   _INT0_ISR
   _INT1_ISR
   _INT2_ISR
   _MSSP_I2C_BC_ISR
   _MSSP_I2C_ISR
   _RB4_ISR
   _RB5_ISR
   _RB6_ISR
   _RB7_ISR
   _TMR0_ISR
   _TMR1_ISR
     NULL(Fake) *
     _Timer1_DefaultInterruptHandler *
       _led_turn_toggle
         _gpio_pin_toggle_logic
   _TMR2_ISR
   _TMR3_ISR
   _USART_RX_ISR
   _USART_TX_ISR

 Address spaces:
Name               Size   Autos  Total    Cost      Usage
BIGRAM             F7F      0       0      48        0.0%
EEDATA             400      0       0       0        0.0%
BITBANK14          100      0       0      32        0.0%
BANK14             100      0       0      33        0.0%
BITBANK13          100      0       0      30        0.0%
BANK13             100      0       0      31        0.0%
BITBANK12          100      0       0      28        0.0%
BANK12             100      0       0      29        0.0%
BITBANK11          100      0       0      26        0.0%
BANK11             100      0       0      27        0.0%
BITBANK10          100      0       0      24        0.0%
BANK10             100      0       0      25        0.0%
BITBANK9           100      0       0      22        0.0%
BANK9              100      0       0      23        0.0%
BITBANK8           100      0       0      20        0.0%
BANK8              100      0       0      21        0.0%
BITBANK7           100      0       0      18        0.0%
BANK7              100      0       0      19        0.0%
BITBANK6           100      0       0      16        0.0%
BANK6              100      0       0      17        0.0%
BITBANK5           100      0       0      14        0.0%
BANK5              100      0       0      15        0.0%
BITBANK4           100      0       0      12        0.0%
BANK4              100      0       0      13        0.0%
BITBANK3           100      0       0      10        0.0%
BANK3              100      0       0      11        0.0%
BITBANK2           100      0       0       8        0.0%
BANK2              100      0       0       9        0.0%
BITBANK1           100      0       0       6        0.0%
BANK1              100      0       0       7        0.0%
BITBANK15           80      0       0      34        0.0%
BANK15              80      0       0      35        0.0%
BITBANK0            80      0       0       4        0.0%
BANK0               80      F      47       5       55.5%
BITCOMRAM           7E      0       0       0        0.0%
COMRAM              7E     1E      6D       1       86.5%
BITBIGSFRhlhhhl     18      0       0      37        0.0%
BITBIGSFRhh          D      0       0      36        0.0%
BITBIGSFRlllhh       6      0       0      44        0.0%
BITBIGSFRhlhhhl      5      0       0      38        0.0%
BITBIGSFRllhllh      4      0       0      41        0.0%
BITBIGSFRllllh       4      0       0      45        0.0%
BITBIGSFRllhllh      4      0       0      42        0.0%
BITBIGSFRlllll       4      0       0      46        0.0%
BITBIGSFRllhllh      1      0       0      40        0.0%
BITBIGSFRhlhhhl      1      0       0      39        0.0%
BITBIGSFRllhlll      1      0       0      43        0.0%
BIGSFR               0      0       0     200        0.0%
BITSFR               0      0       0     200        0.0%
SFR                  0      0       0     200        0.0%
STACK                0      0       0       2        0.0%
NULL                 0      0       0       0        0.0%
ABS                  0      0      B4      47        0.0%
DATA                 0      0      B4       3        0.0%
CODE                 0      0       0       0        0.0%


Microchip Technology PIC18 Macro Assembler V2.41 build 20230208172133 
Symbol Table                                                                                   Sat Jul 22 23:04:25 2023

                               ??_InterruptManager 0056                                    ?_lcd_send_4bits 0066  
                                      _SSPSTATbits 0FC7                                                 l74 1C08  
                                               l69 16C2                                  ??_led_turn_toggle 0054  
                        _USART_FramingErrorHandler 0003                                                l121 1A76  
                                              l114 1576                                                l331 1FE4  
                                              l182 1F2C                                                l270 1B2A  
                                              l176 1DD4                                                l274 1B8A  
                                              l179 1F62                                                l713 1CF8  
                                              l673 1806                                                l692 1932  
                        _RB5_InterruptHandler_HIGH 0021                                    __end_of_ADC_ISR 20BA  
              __end_of_lcd_4bit_send_enable_signal 1F64                        _lcd_4bit_send_enable_signal 1F2E  
                              led_initialize@F3048 0042                                                prod 0FF3  
                            relay_initialize@F3042 003E                                                tosl 0FFD  
                                              wreg 0FE8                        lcd_send_4bits@_data_command 0068  
                                  __end_of_RB4_ISR 206A                                    __end_of_RB5_ISR 2050  
                                  __end_of_RB6_ISR 2036                                    __end_of_RB7_ISR 201C  
_MSSP_I2C_Report_Receive_Overflow_InterruptHandler 002D                                               l1311 1E3C  
                                             l1307 1E0A                                               l1326 1C86  
                                             l1327 1C86                                               l1292 194E  
                                             l1294 19DC                                               l1590 208E  
                                             l5151 1C2A                                               l5161 1C80  
                                             l5153 1C44                                               l5241 1950  
                                             l6201 17C2                                               l5155 1C46  
                                             l5147 1C0A                                               l5251 19BC  
                                             l5243 196E                                               l5235 1934  
                                             l6203 1804                                               l6211 1D6C  
                                             l5157 1C60                                               l5149 1C24  
                                             l5261 19D4                                               l5253 19BE  
                                             l5245 197A                                               l5237 1934  
                                             l6213 1D6C                                               l6301 157E  
                                             l5159 1C66                                               l5263 19D6  
                                             l5255 19C0                                               l5247 1998  
                                             l5239 1946                                               l5271 1DDE  
                                             l6231 1F60                                               l6223 1F2E  
                                             l6215 1D82                                               l6303 1590  
                                             l5257 19D0                                               l5249 19A8  
                                             l5265 19DA                                               l5281 1E3A  
                                             l5273 1DF0                                               l7017 191A  
                                             l6225 1F2E                                               l6217 1D9A  
                                             l6321 1602                                               l6313 15C0  
                                             l6305 1598                                               l6241 1F14  
                                             l5259 19D2                                               l5275 1E02  
                                             l7019 17EE                                               l6171 1848  
                                             l6163 1808                                               l6251 1C9A  
                                             l6227 1F42                                               l6219 1DB4  
                                             l6331 1662                                               l6323 1614  
                                             l6315 15DC                                               l6307 15BC  
                                             l6243 1F2A                                               l6235 1EF8  
                                             l5277 1E12                                               l5269 1DD6  
                                             l6173 18AA                                               l6165 180C  
                                             l6253 1CBC                                               l6229 1F4A  
                                             l6261 1B8C                                               l6333 1674  
                                             l6325 1638                                               l6317 15E0  
                                             l6341 16C0                                               l6237 1EF8  
                                             l5279 1E36                                               l6191 16DA  
                                             l6167 181E                                               l6255 1CC6  
                                             l6247 1C88                                               l6263 1B8C  
                                             l6335 1686                                               l6327 163E  
                                             l6319 15F0                                               l6239 1F0C  
                                             l6351 144C                                               l6431 1FC8  
                                             l6193 16FC                                               l6177 1906  
                                             l6169 1840                                               l6257 1CF6  
                                             l6249 1C88                                               l6265 1BA0  
                                             l6337 1698                                               l6329 1650  
                                             l6281 1A0E                                               l6273 19DE  
                                             l6361 1490                                               l6353 1470  
                                             l6345 142C                                               l6433 1FD6  
                                             l6195 1704                                               l6187 16C4  
                                             l6179 1930                                               l6267 1BA8  
                                             l6339 16AA                                               l6291 1A54  
                                             l6275 19E4                                               l6371 14EC  
                                             l6363 1494                                               l6347 1432  
                                             l6197 1766                                               l6189 16C8  
                                             l6269 1C06                                               l6293 1A64  
                                             l6277 19F6                                               l6381 153A  
                                             l6373 14F2                                               l6365 14A4  
                                             l6349 1444                                               l6429 1FC8  
                                             l6287 1A14                                               l6295 1A74  
                                             l6279 19FE                                               l6383 154C  
                                             l6375 1504                                               l6367 14B6  
                                             l6359 1474                                               l6289 1A50  
                                             l6385 155E                                               l6377 1516  
                                             l6369 14C8                                               l6481 1B2E  
                                             l6299 1578                                               l6379 1528  
                                             l6387 1574                                               l6483 1B64  
                                             l6475 1B0A                                               l6493 208A  
                                             l6485 1B66                                               l6477 1B10  
                                             l6495 208A                                               l6487 1B7A  
                                             l6479 1B22                                               l6489 1B86  
                                             l6961 1EB0                                               l6953 1EA0  
                                             l6971 1EC2                                               l6963 1EB2  
                                             l6955 1EA0                                               l6973 1ECE  
                                             l6965 1EB6                                               l6957 1EA4  
                                             l6975 1EDC                                               l6967 1EBE  
                                             l6959 1EAC                                               l6969 1EC0  
                                             STR_1 1011                 lcd_8bit_send_command@l_pin_counter 00B6  
                                             _LATA 0F89                                               _LATB 0F8A  
                                             _LATC 0F8B                                               _LATD 0F8C  
                                             _LATE 0F8D                                               u5000 1A64  
                                             u5001 1A60                                               u5010 1590  
                                             u5011 158C                                               u5020 15F0  
                                             u5021 15EC                                               u3350 1C24  
                                             u5030 1444                                               u3351 1C20  
                                             u5031 1440                                               u3360 1C44  
                                             u5040 14A4                                               u3361 1C40  
                                             u5041 14A0                                               u3370 1C60  
                                             u5130 1B22                                               u3371 1C5C  
                                             u5131 1B1E                                               u3380 1C80  
                                             u3381 1C7C                                               u3470 1946  
                                             u3471 1942                                               u3480 1DF0  
                                             u3481 1DEC                                               u5145 1B76  
                                             u3490 1E02                                               u3491 1DFE  
                                             u5147 1B7A                                               u4900 16FC  
                                             u4901 16F8                                               u5607 14D0  
                                             u5617 14EE                                               u4930 17DA  
                                             u4914 1724                                               u4850 181E  
                                             u4931 17D4                                               u4915 1720  
                                             u4851 181A                                               u5627 1F0E  
                                             u4940 17DC                                               u4924 1786  
                                             u4860 1840                                               u4925 1782  
                                             u4861 183C                                               u5637 15F8  
                                             u4950 1C9A                                               u4951 1C96  
                                             u5647 161C                                               u4960 1CBC  
                                             u4961 1CB8                                               u5657 163A  
                                             u4890 16DA                                               u4874 1868  
                                             u4970 1BA0                                               u4891 16D6  
                                             u4875 1864                                               u5667 1F44  
                                             u4971 1B9C                                               u4884 18CA  
                                             u4980 19F6                                               u4885 18C6  
                                             u4981 19F2                                               u5597 14AC  
                                             u4994 1A3E                                               u4995 1A3A  
                                             _TMR2 0FCC                            ??_application_intialize 0069  
                    ??_lcd_4bit_send_enable_signal 0068                           _RB4_InterruptHandler_LOW 0023  
                                             _led1 006D                                               _main 1EA0  
                                 __end_of_CCP1_ISR 20B6                                   __end_of_CCP2_ISR 20B2  
                         _RB7_InterruptHandler_LOW 0017                                               fsr2h 0FDA  
                                             indf2 0FDF                                               fsr1l 0FE1  
                                             fsr2l 0FD9                                               btemp 006E  
                           __end_of_led_initialize 1B8C                                               prodh 0FF4  
                                             prodl 0FF3                                               start 000E  
                    __end_of_lcd_8bit_send_command 1A78                                       ___param_bank 0000  
                           ?_gpio_pin_toggle_logic 004B                              _lcd_4bit_send_command 1B8C  
                             _gpio_pin_write_logic 1808                              lcd_4bit_intialize@lcd 00B3  
                            lcd_4bit_intialize@ret 00B8                                   __end_of_INT0_ISR 20AE  
                fp__Timer1_DefaultInterruptHandler 0000                   ??_Timer1_DefaultInterruptHandler 0056  
                  ?_Timer1_DefaultInterruptHandler 004B                                   __end_of_INT1_ISR 20AA  
                                 __end_of_INT2_ISR 20A6                                              ?_main 004B  
                                            _EEADR 0FA9                                              i2l291 1D10  
                                            i2l295 1D6A                                              i2l544 20B0  
                                            i2l457 20B8                                              i2l706 1B08  
                                            i2l539 20B4                                              i2l933 20AC  
                                            i2l861 209C                                              i2l943 20A4  
                                            i2l938 20A8                                              i2l866 20A0  
                                            i2l954 2068                                              i2l965 204E  
                                            i2l976 2034                                              i2l987 201A  
                                            _RCREG 0FAE                                relay_turn_off@F3052 003C  
                            _Timer1_Mode_Selection 1C0A                                              _TMR0H 0FD7  
                                            _TMR1H 0FCF                                              _TMR0L 0FD6  
                                            _TMR1L 0FCE                                              _TMR3H 0FB3  
                                            _TMR3L 0FB2                                              _SPBRG 0FAF  
                                            _PORTA 0F80                                              _PORTB 0F81  
                                            _PORTC 0F82                                              _PORTD 0F83  
                                            _PORTE 0F84                                              _TRISA 0F92  
                                            _TRISB 0F93                                              _TRISC 0F94  
                                            _TRISD 0F95                                              _TRISE 0F96  
                                            _TXREG 0FAD                                   __end_of_TMR0_ISR 2082  
                                 __end_of_TMR1_ISR 1F9A                                   __end_of_TMR2_ISR 208A  
                                 __end_of_TMR3_ISR 2076                                              _lcd_1 00A8  
                                            _lcd_2 009E                                              pclath 0FFA  
                                            pclatu 0FFB                                              tablat 0FF5  
                                            ttemp5 006F                                              ttemp6 0072  
                                            ttemp7 0076                                              status 0FD8  
                                            wtemp8 006F                                    ?_led_initialize 00AF  
                                  __initialization 1E3E                                       __end_of_main 1EF8  
                            ?_gpio_pin_write_logic 005C                                          ??_ADC_ISR 004B  
                                    _lat_registers 008A                                             ??_main 0069  
                                    __activetblptr 0003                              _TMR3_InterruptHandler 0009  
                                 led_turn_on@F3053 0041                                          ??_RB4_ISR 004B  
                                        ??_RB5_ISR 004B                                          ??_RB6_ISR 004B  
                                        ??_RB7_ISR 004B                                  Timer1_Init@_timer 005E  
                                           _ADRESH 0FC4                                             _EEADRH 0FAA  
                                           _ADRESL 0FC3                                             _EEDATA 0FA8  
                                           _CCPR1H 0FBF                                             _CCPR2H 0FBC  
                                           _CCPR1L 0FBE                                             _CCPR2L 0FBB  
                                           _EECON2 0FA7                                             i2l1200 13F0  
                                           i2l1203 1410                                             i2l1160 1050  
                                           i2l1170 115C                                             i2l1162 1070  
                                           i2l1316 1F98                                             i2l1180 12B0  
                                           i2l1172 11A0                                             i2l1164 1090  
                                           i2l1413 2074                                             i2l1246 2080  
                                           i2l1190 1350                                             i2l1182 12D0  
                                           i2l1174 11E4                                             i2l1166 10D4  
                                           i2l1192 1370                                             i2l1184 12F0  
                                           i2l1176 1228                                             i2l1168 1118  
                                           i2l1194 1390                                             i2l1186 1310  
                                           i2l1178 126C                                             i2l1196 13B0  
                                           i2l1188 1330                                             i2l1198 13D0  
                                           i2l1368 2088                                             i2l1544 2098  
                                           i2l1553 20BA                                             i2l1576 2000  
                                           i2l2721 20B2                                             i2l6001 11AE  
                                           i2l2715 20B6                                             i2l2811 2034  
                                           i2l2803 201E                                             i2l6011 11F2  
                                           i2l6003 11BC                                             i2l2805 2020  
                                           i2l2901 206C                                             i2l6021 1236  
                                           i2l6013 1200                                             i2l6005 11CA  
                                           i2l2727 20AE                                             i2l2751 209E  
                                           i2l5231 1F6E                                             i2l2903 2070  
                                           i2l6031 127A                                             i2l6023 1244  
                                           i2l6015 120E                                             i2l6007 11DA  
                                           i2l2745 209A                                             i2l2825 201A  
                                           i2l2817 2004                                             i2l5233 1F80  
                                           i2l5225 1F64                                             i2l6041 12BE  
                                           i2l6033 1288                                             i2l6025 1252  
                                           i2l6017 121E                                             i2l6009 11DE  
                                           i2l2763 20A6                                             i2l2819 2006  
                                           i2l5091 1D0C                                             i2l5163 1FE6  
                                           i2l5227 1F66                                             i2l2915 20BA  
                                           i2l6051 130C                                             i2l6043 12CC  
                                           i2l6035 1296                                             i2l6027 1262  
                                           i2l6019 1222                                             i2l2757 20AA  
                                           i2l5093 1D14                                             i2l5165 1FF4  
                                           i2l5229 1F6A                                             i2l2909 2096  
                                           i2l6061 135E                                             i2l6053 131E  
                                           i2l6045 12DE                                             i2l6037 12A6  
                                           i2l6029 1266                                             i2l2783 2068  
                                           i2l2775 2052                                             i2l2791 203A  
                                           i2l5095 1D4A                                             i2l5087 1CFA  
                                           i2l6071 13AC                                             i2l6063 136C  
                                           i2l6055 132C                                             i2l6047 12EC  
                                           i2l6039 12AA                                             i2l2769 20A2  
                                           i2l2777 2054                                             i2l2873 2076  
                                           i2l5097 1D4C                                             i2l5089 1CFA  
                                           i2l6081 13FE                                             i2l6073 13BE  
                                           i2l6065 137E                                             i2l6057 133E  
                                           i2l6049 12FE                                             i2l2875 2078  
                                           i2l5099 1D5E                                             i2l6083 140C  
                                           i2l6075 13CC                                             i2l6067 138C  
                                           i2l6059 134C                                             i2l2797 204E  
                                           i2l2789 2038                                             i2l2877 207C  
                                           i2l2893 2082                                             i2l6077 13DE  
                                           i2l6069 139E                                             i2l6079 13EC  
                                           i2l2899 206A                                             i2l4991 1AB0  
                                           i2l4983 1A78                                             i2l5951 104C  
                                           i2l4985 1A78                                             i2l5961 109E  
                                           i2l5953 105E                                             i2l4987 1A8A  
                                           i2l5971 10E2                                             i2l5963 10AC  
                                           i2l5955 106C                                             i2l5947 1030  
                                           i2l4989 1AAC                                             i2l5981 1126  
                                           i2l5973 10F0                                             i2l5965 10BA  
                                           i2l5957 107E                                             i2l5949 103E  
                                           i2l5991 116A                                             i2l5983 1134  
                                           i2l5975 10FE                                             i2l5967 10CA  
                                           i2l5959 108C                                             i2l5993 1178  
                                           i2l5985 1142                                             i2l5977 110E  
                                           i2l5969 10CE                                             i2l5995 1186  
                                           i2l5987 1152                                             i2l5979 1112  
                                           i2l5997 1196                                             i2l5989 1156  
                                           i2l5999 119A                                             _SPBRGH 0FB0  
                                           _SSPADD 0FC8                                             _SSPBUF 0FC9  
                 gpio_pin_toggle_logic@_pin_config 004B                                      ??_Timer1_Init 0060  
                           ?_lcd_4bit_send_command 00AF                                             clear_0 1E84  
                                           clear_1 1E90                              led_initialize@pin_obj 00B3  
                                           isa$std 0001                             ?_Timer1_Mode_Selection 005C  
          gpio_pin_direction_intialize@_pin_config 005C                                          ?_CCP1_ISR 004B  
                                     __pdataCOMRAM 0069                                          ?_CCP2_ISR 004B  
                                     __mediumconst 0000                                             tblptrh 0FF7  
                                           tblptrl 0FF6                                             tblptru 0FF8  
                                       __accesstop 0080                            __end_of__initialization 1E96  
                                        ?_INT0_ISR 004B                                          ?_INT1_ISR 004B  
                                        ?_INT2_ISR 004B                                      ___rparam_used 0001  
                                 ??_lcd_send_4bits 0069                                  led_initialize@led 00AF  
                                  _led_turn_toggle 1CFA                                  led_initialize@ret 00B2  
                                RB5_ISR@RB5_Source 004B                             ??_gpio_pin_write_logic 005F  
                                   __pcstackCOMRAM 004B                                       __pidataBANK0 1F9A  
                                        ?_TMR0_ISR 004B                                          ?_TMR1_ISR 004B  
                                        ?_TMR2_ISR 004B                                          ?_TMR3_ISR 004B  
                              __end_of_Timer1_Init 19DE                           lcd_4bit_send_command@lcd 00AF  
                         lcd_4bit_send_command@ret 00B2                                 _lcd_8bit_intialize 142C  
                                       ??_CCP1_ISR 004B                                         ??_CCP2_ISR 004B  
                              ?_lcd_8bit_intialize 00B7                                         __pbssBANK0 00BD  
                            _INT0_InterruptHandler 002B                                         ??_INT0_ISR 004B  
                                       ??_INT1_ISR 004B                                         ??_INT2_ISR 004B  
                    __end_of_application_intialize 2090                            ??_gpio_pin_toggle_logic 004D  
                             ??_lcd_8bit_intialize 00B9                    _USART_TxDefaultInterruptHandler 0007  
                                       ??_TMR0_ISR 004B                                         ??_TMR1_ISR 0056  
                                       ??_TMR2_ISR 004B                                         ??_TMR3_ISR 004B  
                                led_turn_off@F3058 0040                                            _ADC_ISR 20B6  
                                RB7_ISR@RB7_Source 004B                                            _RB4_ISR 2050  
                                          _RB5_ISR 2036                                            _RB6_ISR 201C  
                                          _RB7_ISR 2002                          _RB6_InterruptHandler_HIGH 001D  
                                    ?_MSSP_I2C_ISR 004B                               led_turn_toggle@F3063 003F  
                                          i2u50_40 2064                                            i2u50_41 2060  
                                          i2u51_40 204A                                            i2u51_41 2046  
                                          i2u52_40 2030                                            i2u52_41 202C  
                                          i2u53_40 2016                                            i2u53_41 2012  
              __end_of_lcd_8bit_send_enable_signal 1F2E                        _lcd_8bit_send_enable_signal 1EF8  
                                 ??_led_initialize 00B1             __end_of_Timer1_DefaultInterruptHandler 2002  
                   _Timer1_DefaultInterruptHandler 1FE6                                         _btn_values 1001  
                          __end_of_led_turn_toggle 1D6C                     lcd_8bit_send_enable_signal@lcd 0066  
                   lcd_8bit_send_enable_signal@ret 0068                                     _tris_registers 0094  
                         _RB6_InterruptHandler_LOW 001B                      ??_lcd_8bit_send_enable_signal 0068  
                                ??_MSSP_I2C_BC_ISR 004B                               _ADC_InterruptHandler 0039  
                                          __Hparam 0000                                        _Timer1_Init 1934  
                                          __Lparam 0000                                _ecu_layer_intialize 1FC8  
                          Timer1_Read_Value@_value 005E                            Timer1_Read_Value@_timer 005C  
                            _lcd_8bit_send_command 19DE                                       __psmallconst 1000  
                       __end_of_gpio_pin_intialize 1CFA                                            __pcinit 1E3E  
                                          __ramtop 1000                                            __ptext0 1EA0  
                                          __ptext1 1B0A                                            __ptext2 208A  
                                          __ptext3 1FC8                                            __ptext4 142C  
                                          __ptext5 19DE                                            __ptext6 1EF8  
                                          __ptext7 1578                                            __ptext8 1B8C  
                                          __ptext9 1D6C                                          _T0CONbits 0FD5  
                                        _T1CONbits 0FCD                                     ??_MSSP_I2C_ISR 004B  
                                        _T2CONbits 0FCA                                          _T3CONbits 0FB1  
                             ?_ecu_layer_intialize 004B                                  _Timer1_Read_Value 1DD6  
            lcd_8bit_intialize@l_data_pins_counter 00BB              lcd_4bit_intialize@l_data_pins_counter 00B7  
                                   __pintcode_body 1016                               end_of_initialization 1E96  
                                lcd_send_4bits@lcd 0066                                  lcd_send_4bits@ret 00AE  
                               ?_Timer1_Read_Value 005C                                            int_func 1016  
                       __end_of_lcd_4bit_intialize 16C4                            ??_lcd_4bit_send_command 0069  
                              ??_Timer1_Read_Value 0060                              gpio_pin_intialize@ret 00AE  
                                        _RCSTAbits 0FAB                                            postdec1 0FE5  
                                          postdec2 0FDD                                            postinc0 0FEE  
                                          postinc2 0FDE                            ??_Timer1_Mode_Selection 005E  
                            _INT1_InterruptHandler 0029                                          _PORTBbits 0F81  
                                 _InterruptManager 0008                      gpio_pin_intialize@_pin_config 0066  
                            ??_ecu_layer_intialize 0069                          __end_of_Timer1_Read_Value 1E3E  
             __end_of_gpio_pin_direction_intialize 1808                       _gpio_pin_direction_intialize 16C4  
                                        _TRISCbits 0F94                                      ?_USART_RX_ISR 004B  
                                    ?_USART_TX_ISR 004B                                   ?_led_turn_toggle 0052  
                                      _CCP1CONbits 0FBD                                        _CCP2CONbits 0FBA  
                                        _TXSTAbits 0FAC                                 relay_turn_on@F3047 003D  
                           ?_lcd_8bit_send_command 00AE                      convert_uint16_to_string@F3198 00BD  
                                      _BAUDCONbits 0FB8                                      __pidataCOMRAM 2090  
                                   _timer0_preload 0015                               Timer1_Read_Value@ret 0064  
                                   _timer1_preload 0011                                     _timer2_preload 003B  
                              start_initialization 1E3E                                     _timer3_preload 000B  
                     ?_lcd_4bit_send_enable_signal 0066                             led_turn_toggle@pin_obj 0055  
                    ?_gpio_pin_direction_intialize 005C                                     ??_USART_RX_ISR 004B  
                                   ??_USART_TX_ISR 004B                          _USART_OverrunErrorHandler 0001  
                             __end_of_MSSP_I2C_ISR 209E                      __end_of_gpio_pin_toggle_logic 1B0A  
                                      __pdataBANK0 0080                                           ?_ADC_ISR 004B  
                     lcd_4bit_send_command@command 00B1                           lcd_8bit_send_command@lcd 00AE  
                         lcd_8bit_send_command@ret 00B5                                           ?_RB4_ISR 004B  
                                         ?_RB5_ISR 004B                                           ?_RB6_ISR 004B  
                                         ?_RB7_ISR 004B                                        __pbssCOMRAM 0001  
 _MSSP_I2C_Report_Write_Collision_InterruptHandler 002F                                      __pcstackBANK0 00AE  
                                  _MSSP_I2C_BC_ISR 209E                              _INT2_InterruptHandler 0027  
                  _USART_RxDefaultInterruptHandler 0005                    gpio_pin_direction_intialize@ret 0064  
                            _TMR0_InterruptHandler 0013                                       ?_Timer1_Init 005E  
                            _application_intialize 208A                                          __pintcode 0008  
                  gpio_pin_write_logic@_pin_config 005C                          gpio_pin_write_logic@logic 005E  
                                      __smallconst 1000                          _RB4_InterruptHandler_HIGH 0025  
                                         _CCP1_ISR 20B2                                           _CCP2_ISR 20AE  
                        _RB7_InterruptHandler_HIGH 0019                                 _gpio_pin_intialize 1C88  
                   ??_gpio_pin_direction_intialize 005E                           _RB5_InterruptHandler_LOW 001F  
                                         _INT0_ISR 20AA                                           _INT1_ISR 20A6  
                               _timer1_counter_val 0049                                           _INT2_ISR 20A2  
                                         _RB4_Flag 006C                                           _RB5_Flag 006B  
                                         _RB6_Flag 006A                                           _RB7_Flag 0069  
                                RB4_ISR@RB4_Source 004B                                ?_gpio_pin_intialize 0066  
                         __end_of_InterruptManager 142C                                           _PIE1bits 0F9D  
                                         _PIE2bits 0FA0                      __end_of_lcd_4bit_send_command 1C0A  
                                         i2u322_40 1A8A                                           i2u322_41 1A86  
                                         i2u330_45 1D5C                                           i2u330_47 1D5E  
                                         i2u323_40 1AAC                                           i2u323_41 1AA8  
                                         i2u324_44 1AD0                                           i2u324_45 1ACC  
                                         i2u430_40 108C                                           i2u430_41 1088  
                                         i2u431_40 109E                                           i2u431_41 109A  
                                         i2u440_40 1134                                           i2u432_40 10AC  
                                         i2u440_41 1130                                           i2u432_41 10A8  
                                         i2u329_40 1D0C                                           i2u345_40 1F80  
                                         i2u441_40 1142                                           i2u433_40 10BA  
                                         i2u425_40 103E                                           i2u329_41 1D08  
                                         i2u345_41 1F7C                                           i2u441_41 113E  
                                         i2u433_41 10B6                                           i2u425_41 103A  
                                         _PIR1bits 0F9E                                           i2u450_40 11DA  
                                         i2u442_40 1152                                           i2u434_40 10CA  
                                         i2u426_40 104C                                           i2u450_41 11D6  
                                         i2u442_41 114E                                           i2u434_41 10C6  
                                         i2u426_41 1048                                           i2u346_48 1F86  
                                         i2u451_40 11F2                                           i2u443_40 116A  
                                         i2u435_40 10E2                                           i2u427_40 105E  
                                         i2u346_49 1F98                                           i2u451_41 11EE  
                                         i2u443_41 1166                                           i2u435_41 10DE  
                                         i2u427_41 105A                                           _PIR2bits 0FA1  
                                         i2u460_40 1288                                           i2u452_40 1200  
                                         i2u444_40 1178                                           i2u436_40 10F0  
                                         i2u428_40 106C                                           i2u460_41 1284  
                                         i2u452_41 11FC                                           i2u444_41 1174  
                                         i2u436_41 10EC                                           i2u428_41 1068  
                                         i2u461_40 1296                                           i2u453_40 120E  
                                         i2u445_40 1186                                           i2u437_40 10FE  
                                         i2u429_40 107E                                           i2u461_41 1292  
                                         i2u453_41 120A                                           i2u445_41 1182  
                                         i2u437_41 10FA                                           i2u429_41 107A  
                                         i2u470_40 132C                                           i2u462_40 12A6  
                                         i2u454_40 121E                                           i2u446_40 1196  
                                         i2u438_40 110E                                           i2u470_41 1328  
                                         i2u462_41 12A2                                           i2u454_41 121A  
                                         i2u446_41 1192                                           i2u438_41 110A  
                                         i2u471_40 133E                                           i2u463_40 12BE  
                                         i2u455_40 1236                                           i2u447_40 11AE  
                                         i2u439_40 1126                                           i2u471_41 133A  
                                         i2u463_41 12BA                                           i2u455_41 1232  
                                         i2u447_41 11AA                                           i2u439_41 1122  
                                         i2u480_40 13CC                                           i2u472_40 134C  
                                         i2u464_40 12CC                                           i2u456_40 1244  
                                         i2u448_40 11BC                                           i2u480_41 13C8  
                                         i2u472_41 1348                                           i2u464_41 12C8  
                                         i2u456_41 1240                                           i2u448_41 11B8  
                                         i2u481_40 13DE                                           i2u473_40 135E  
                                         i2u465_40 12DE                                           i2u457_40 1252  
                                         i2u449_40 11CA                                           i2u481_41 13DA  
                                         i2u473_41 135A                                           i2u465_41 12DA  
                                         i2u457_41 124E                                           i2u449_41 11C6  
                                         i2u482_40 13EC                                           i2u474_40 136C  
                                         i2u466_40 12EC                                           i2u458_40 1262  
                                         i2u482_41 13E8                                           i2u474_41 1368  
                                         i2u466_41 12E8                                           i2u458_41 125E  
                                         i2u483_40 13FE                                           i2u475_40 137E  
                                         i2u467_40 12FE                                           i2u459_40 127A  
                                         i2u483_41 13FA                                           i2u475_41 137A  
                                         i2u467_41 12FA                                           i2u459_41 1276  
                                         i2u484_40 140C                                           i2u476_40 138C  
                                         i2u468_40 130C                                           i2u484_41 1408  
                                         i2u476_41 1388                                           i2u468_41 1308  
                                         i2u477_40 139E                                           i2u469_40 131E  
                                         i2u477_41 139A                                           i2u469_41 131A  
                                         i2u478_40 13AC                                           i2u478_41 13A8  
                                         i2u479_40 13BE                                           i2u479_41 13BA  
                                        _timer1_on 00C3                                           _TMR0_ISR 2076  
                                         _TMR1_ISR 1F64                                           _TMR2_ISR 2082  
                                         _TMR3_ISR 206A                               __end_of_USART_RX_ISR 20BC  
                            lcd_8bit_intialize@lcd 00B7                               __end_of_USART_TX_ISR 209A  
                               _lcd_4bit_intialize 1578                              lcd_8bit_intialize@ret 00BC  
                    __end_of_Timer1_Mode_Selection 1C88                                         _ADCON0bits 0FC2  
                                       _ADCON1bits 0FC1                                         _ADCON2bits 0FC0  
                      Timer1_Mode_Selection@_timer 005C                            __end_of_MSSP_I2C_BC_ISR 20A2  
                             ??_gpio_pin_intialize 0068                                ?_lcd_4bit_intialize 00B3  
                 _MSSP_I2C_DefaultInterruptHandler 0031                            gpio_pin_write_logic@ret 0065  
                                      _INTCON2bits 0FF1                                        _INTCON3bits 0FF0  
                                        copy_data0 1E52                                          copy_data1 1E72  
                          ??_lcd_8bit_send_command 00B1                                         _EECON1bits 0FA6  
                                      _counter_obj 0043                             ?_application_intialize 004B  
                             ??_lcd_4bit_intialize 00B5                                           __Hrparam 0000  
                                         __Lrparam 0000                           Timer1_Read_Value@l_tmr1h 0063  
                         Timer1_Read_Value@l_tmr1l 0062                                  RB6_ISR@RB6_Source 004B  
                            _CCP1_InterruptHandler 0037                        __end_of_ecu_layer_intialize 1FE6  
                               __end_of_btn_values 1011                              _TMR1_InterruptHandler 000F  
                                     _MSSP_I2C_ISR 209A                                           __ptext10 1F2E  
                                         __ptext11 1C88                                           __ptext20 206A  
                                         __ptext12 1808                                           __ptext21 2082  
                                         __ptext13 16C4                                           __ptext30 2050  
                                         __ptext22 1F64                                           __ptext14 1DD6  
                                         __ptext31 209A                                           __ptext23 1FE6  
                                         __ptext15 1934                                           __ptext32 209E  
                                         __ptext24 1CFA                                           __ptext16 1C0A  
                                         __ptext33 20A2                                           __ptext25 1A78  
                                         __ptext34 20A6                                           __ptext26 2076  
                                         __ptext18 2096                                           __ptext35 20AA  
                                         __ptext27 2002                                           __ptext19 20BA  
                                         __ptext36 20AE                                           __ptext28 201C  
                                         __ptext37 20B2                                           __ptext29 2036  
                                         __ptext38 20B6                                           __ptext39 0000  
                               led_turn_toggle@led 0052                                           isa$xinst 0000  
                                         int$flags 006E                                     _lcd_send_4bits 1D6C  
                                 ?_MSSP_I2C_BC_ISR 004B                                         _INTCONbits 0FF2  
                                   Timer1_Init@ret 0062                       __end_of_gpio_pin_write_logic 1934  
                     ?_lcd_8bit_send_enable_signal 0066                                           intlevel2 0000  
                   lcd_4bit_send_enable_signal@lcd 0066                     lcd_4bit_send_enable_signal@ret 0068  
                           __end_of_lcd_send_4bits 1DD6                              _gpio_pin_toggle_logic 1A78  
                                   _port_registers 0080                                        _SSPCON1bits 0FC6  
                                      _SSPCON2bits 0FC5                    CCP_Set_Compare_Mode_Value@F3106 0033  
                            _CCP2_InterruptHandler 0035                                       _USART_RX_ISR 20BA  
                                     _USART_TX_ISR 2096                       lcd_8bit_send_command@command 00B0  
                            _TMR2_InterruptHandler 000D                                  ?_InterruptManager 004B  
                       __end_of_lcd_8bit_intialize 1578                                     _led_initialize 1B0A  
